
C:/Users/Timothy/Documents/GitHub/ECE243/Test_Projects_V2/GUI.axf:     file format elf32-littlearm


Disassembly of section .vectors:

00000000 <__cs3_interrupt_vector>:
   0:	18 f0 9f e5 18 f0 9f e5 18 f0 9f e5 18 f0 9f e5     ................
  10:	18 f0 9f e5 18 f0 9f e5 18 f0 9f e5 18 f0 9f e5     ................
  20:	40 09 00 00 44 09 00 00 48 09 00 00 4c 09 00 00     @...D...H...L...
  30:	50 09 00 00 a0 2b 00 00 ac 1a 00 00 54 09 00 00     P....+......T...

Disassembly of section .text:

00000040 <__cs3_reset_generic>:
      40:	ea000026 	b	e0 <__cs3_start_asm_sim>

00000044 <__cs3_start_c>:
      44:	e59f608c 	ldr	r6, [pc, #140]	; d8 <__cs3_start_c+0x94>
      48:	e3560000 	cmp	r6, #0
      4c:	e92d4080 	push	{r7, lr}
      50:	e2466001 	sub	r6, r6, #1
      54:	0a00001e 	beq	d4 <__cs3_start_c+0x90>
      58:	e59f507c 	ldr	r5, [pc, #124]	; dc <__cs3_start_c+0x98>
      5c:	e3a00000 	mov	r0, #0
      60:	e3a01000 	mov	r1, #0
      64:	e515200c 	ldr	r2, [r5, #-12]
      68:	e515e010 	ldr	lr, [r5, #-16]
      6c:	e5154008 	ldr	r4, [r5, #-8]
      70:	e15e0002 	cmp	lr, r2
      74:	00822004 	addeq	r2, r2, r4
      78:	0a000009 	beq	a4 <__cs3_start_c+0x60>
      7c:	e3540000 	cmp	r4, #0
      80:	0a000007 	beq	a4 <__cs3_start_c+0x60>
      84:	e1a07002 	mov	r7, r2
      88:	e1a0c002 	mov	r12, r2
      8c:	e8be000c 	ldm	lr!, {r2, r3}
      90:	e8ac000c 	stmia	r12!, {r2, r3}
      94:	e067300c 	rsb	r3, r7, r12
      98:	e1540003 	cmp	r4, r3
      9c:	e1a0200c 	mov	r2, r12
      a0:	1afffff9 	bne	8c <__cs3_start_c+0x48>
      a4:	e515e004 	ldr	lr, [r5, #-4]
      a8:	e35e0000 	cmp	lr, #0
      ac:	11a03002 	movne	r3, r2
      b0:	0a000003 	beq	c4 <__cs3_start_c+0x80>
      b4:	e8a30003 	stmia	r3!, {r0, r1}
      b8:	e062c003 	rsb	r12, r2, r3
      bc:	e15e000c 	cmp	lr, r12
      c0:	1afffffb 	bne	b4 <__cs3_start_c+0x70>
      c4:	e2466001 	sub	r6, r6, #1
      c8:	e3760001 	cmn	r6, #1
      cc:	e2855014 	add	r5, r5, #20
      d0:	1affffe3 	bne	64 <__cs3_start_c+0x20>
      d4:	eb000a98 	bl	2b3c <__cs3_premain>
      d8:	00000001 	.word	0x00000001
      dc:	0001ee8c 	.word	0x0001ee8c

000000e0 <__cs3_start_asm_sim>:
      e0:	e28f103c 	add	r1, pc, #60	; 0x3c
      e4:	e3a00016 	mov	r0, #22
      e8:	ef123456 	svc	0x00123456
      ec:	e3500000 	cmp	r0, #0
      f0:	ba000008 	blt	118 <__cs3_region_zero_size_ram+0x28>
      f4:	e59f2028 	ldr	r2, [pc, #40]	; 124 <__cs3_heap_start_ptr>
      f8:	e59fd01c 	ldr	sp, [pc, #28]	; 11c <__cs3_region_zero_size_ram+0x2c>
      fc:	e5920008 	ldr	r0, [r2, #8]
     100:	e3500000 	cmp	r0, #0
     104:	11a0d000 	movne	sp, r0
     108:	e59f1010 	ldr	r1, [pc, #16]	; 120 <__cs3_region_zero_size_ram+0x30>
     10c:	e5920004 	ldr	r0, [r2, #4]
     110:	e3500000 	cmp	r0, #0
     114:	15810000 	strne	r0, [r1]
     118:	eaffffc9 	b	44 <__cs3_start_c>
     11c:	3ffffff8 	.word	0x3ffffff8
     120:	0001f2f0 	.word	0x0001f2f0

00000124 <__cs3_heap_start_ptr>:
     124:	0001f3e8 	.word	0x0001f3e8

00000128 <_start>:
     128:	e51fd000 	ldr	sp, [pc, #-0]	; 130 <_start+0x8>
     12c:	eaffffc4 	b	44 <__cs3_start_c>
     130:	3ffffff8 	.word	0x3ffffff8

00000134 <deregister_tm_clones>:
     134:	e92d4008 	push	{r3, lr}
     138:	e59f002c 	ldr	r0, [pc, #44]	; 16c <deregister_tm_clones+0x38>
     13c:	e59f302c 	ldr	r3, [pc, #44]	; 170 <deregister_tm_clones+0x3c>
     140:	e0603003 	rsb	r3, r0, r3
     144:	e3530006 	cmp	r3, #6
     148:	8a000001 	bhi	154 <deregister_tm_clones+0x20>
     14c:	e8bd4008 	pop	{r3, lr}
     150:	e12fff1e 	bx	lr
     154:	e59f3018 	ldr	r3, [pc, #24]	; 174 <deregister_tm_clones+0x40>
     158:	e3530000 	cmp	r3, #0
     15c:	0afffffa 	beq	14c <deregister_tm_clones+0x18>
     160:	e1a0e00f 	mov	lr, pc
     164:	e12fff13 	bx	r3
     168:	eafffff7 	b	14c <deregister_tm_clones+0x18>
     16c:	0001f2f8 	.word	0x0001f2f8
     170:	0001f2fb 	.word	0x0001f2fb
     174:	00000000 	.word	0x00000000

00000178 <register_tm_clones>:
     178:	e92d4008 	push	{r3, lr}
     17c:	e59f0034 	ldr	r0, [pc, #52]	; 1b8 <register_tm_clones+0x40>
     180:	e59f3034 	ldr	r3, [pc, #52]	; 1bc <register_tm_clones+0x44>
     184:	e0603003 	rsb	r3, r0, r3
     188:	e1a03143 	asr	r3, r3, #2
     18c:	e0833fa3 	add	r3, r3, r3, lsr #31
     190:	e1b010c3 	asrs	r1, r3, #1
     194:	1a000001 	bne	1a0 <register_tm_clones+0x28>
     198:	e8bd4008 	pop	{r3, lr}
     19c:	e12fff1e 	bx	lr
     1a0:	e59f2018 	ldr	r2, [pc, #24]	; 1c0 <register_tm_clones+0x48>
     1a4:	e3520000 	cmp	r2, #0
     1a8:	0afffffa 	beq	198 <register_tm_clones+0x20>
     1ac:	e1a0e00f 	mov	lr, pc
     1b0:	e12fff12 	bx	r2
     1b4:	eafffff7 	b	198 <register_tm_clones+0x20>
     1b8:	0001f2f8 	.word	0x0001f2f8
     1bc:	0001f2f8 	.word	0x0001f2f8
     1c0:	00000000 	.word	0x00000000

000001c4 <__do_global_dtors_aux>:
     1c4:	e92d4010 	push	{r4, lr}
     1c8:	e59f402c 	ldr	r4, [pc, #44]	; 1fc <__do_global_dtors_aux+0x38>
     1cc:	e5d43000 	ldrb	r3, [r4]
     1d0:	e3530000 	cmp	r3, #0
     1d4:	1a000006 	bne	1f4 <__do_global_dtors_aux+0x30>
     1d8:	ebffffd5 	bl	134 <deregister_tm_clones>
     1dc:	e59f301c 	ldr	r3, [pc, #28]	; 200 <__do_global_dtors_aux+0x3c>
     1e0:	e3530000 	cmp	r3, #0
     1e4:	159f0018 	ldrne	r0, [pc, #24]	; 204 <__do_global_dtors_aux+0x40>
     1e8:	1320f000 	nopne	{0}
     1ec:	e3a03001 	mov	r3, #1
     1f0:	e5c43000 	strb	r3, [r4]
     1f4:	e8bd4010 	pop	{r4, lr}
     1f8:	e12fff1e 	bx	lr
     1fc:	0001f2f8 	.word	0x0001f2f8
     200:	00000000 	.word	0x00000000
     204:	00002c2c 	.word	0x00002c2c

00000208 <frame_dummy>:
     208:	e92d4008 	push	{r3, lr}
     20c:	e59f3034 	ldr	r3, [pc, #52]	; 248 <frame_dummy+0x40>
     210:	e3530000 	cmp	r3, #0
     214:	159f0030 	ldrne	r0, [pc, #48]	; 24c <frame_dummy+0x44>
     218:	159f1030 	ldrne	r1, [pc, #48]	; 250 <frame_dummy+0x48>
     21c:	1320f000 	nopne	{0}
     220:	e59f002c 	ldr	r0, [pc, #44]	; 254 <frame_dummy+0x4c>
     224:	e5903000 	ldr	r3, [r0]
     228:	e3530000 	cmp	r3, #0
     22c:	0a000003 	beq	240 <frame_dummy+0x38>
     230:	e59f3020 	ldr	r3, [pc, #32]	; 258 <frame_dummy+0x50>
     234:	e3530000 	cmp	r3, #0
     238:	11a0e00f 	movne	lr, pc
     23c:	112fff13 	bxne	r3
     240:	e8bd4008 	pop	{r3, lr}
     244:	eaffffcb 	b	178 <register_tm_clones>
     248:	00000000 	.word	0x00000000
     24c:	00002c2c 	.word	0x00002c2c
     250:	0001f2fc 	.word	0x0001f2fc
     254:	0001ee90 	.word	0x0001ee90
     258:	00000000 	.word	0x00000000

0000025c <initializeBoard>:

//reset functions
void resetGame(bool reset, int board[][COLS]);


void initializeBoard (int board[][COLS]) {
     25c:	e92d0ff0 	push	{r4, r5, r6, r7, r8, r9, r10, r11}
     260:	e1a03000 	mov	r3, r0
     264:	e3a01005 	mov	r1, #5
    //initialize everything to 0 first
    int i = 0;
    int j = 0;
    for (i = 0; i < ROWS; i++) {
        for (j = 0; j < COLS; j++) {
            board [i][j] = 0;
     268:	e3a02000 	mov	r2, #0
     26c:	e5832000 	str	r2, [r3]
     270:	e5832004 	str	r2, [r3, #4]
     274:	e5832008 	str	r2, [r3, #8]
     278:	e583200c 	str	r2, [r3, #12]
     27c:	e5832010 	str	r2, [r3, #16]
     280:	e2833014 	add	r3, r3, #20
void initializeBoard (int board[][COLS]) {
// 1 for red, 2 for green, 3 for blue, 4 for yellow, 5 for orange
    //initialize everything to 0 first
    int i = 0;
    int j = 0;
    for (i = 0; i < ROWS; i++) {
     284:	e2511001 	subs	r1, r1, #1
     288:	1afffff7 	bne	26c <initializeBoard+0x10>
        }
    }

    // hardcoding the positions
    // RED
    board [0][0] = 1;
     28c:	e3a03001 	mov	r3, #1
     290:	e5803000 	str	r3, [r0]
    board [1][4] = 1;
     294:	e5803024 	str	r3, [r0, #36]	; 0x24
    // GREEN
    board [2][0] = 2;
     298:	e3a03002 	mov	r3, #2
     29c:	e5803028 	str	r3, [r0, #40]	; 0x28
    board [1][3] = 2;
     2a0:	e5803020 	str	r3, [r0, #32]
    // BLUE
    board [2][1] = 3;
     2a4:	e3a03003 	mov	r3, #3
     2a8:	e580302c 	str	r3, [r0, #44]	; 0x2c
    board [2][4] = 3;
     2ac:	e5803038 	str	r3, [r0, #56]	; 0x38
    // YELLOW
    board [4][0] = 4;
     2b0:	e3a03004 	mov	r3, #4
     2b4:	e5803050 	str	r3, [r0, #80]	; 0x50
    board [3][3] = 4;
     2b8:	e5803048 	str	r3, [r0, #72]	; 0x48
    // ORANGE
    board [4][1] = 5;
     2bc:	e3a03005 	mov	r3, #5
     2c0:	e5803054 	str	r3, [r0, #84]	; 0x54
    board [3][4] = 5;
     2c4:	e580304c 	str	r3, [r0, #76]	; 0x4c

	//initializing the gameBoard variable
	int x = 0, y = 0;
	for(x = 0; x < 5; x++) {
     2c8:	e3a01000 	mov	r1, #0

//reset functions
void resetGame(bool reset, int board[][COLS]);


void initializeBoard (int board[][COLS]) {
     2cc:	e30f7314 	movw	r7, #62228	; 0xf314
     2d0:	e3407001 	movt	r7, #1
     2d4:	e1a09001 	mov	r9, r1
			if(x == 0 && y == 0) { //red start
				gameBoard[x][y] = 'r';
			} else if(y == 1 && x == 4) { //red end
				gameBoard[x][y] = 'R';
			} else if(y == 2 && x == 0) { //green start
				gameBoard[x][y] = 'g';
     2d8:	e3a0b067 	mov	r11, #103	; 0x67
	for(x = 0; x < 5; x++) {
		for(y = 0; y < 5; y++) {
			if(x == 0 && y == 0) { //red start
				gameBoard[x][y] = 'r';
			} else if(y == 1 && x == 4) { //red end
				gameBoard[x][y] = 'R';
     2dc:	e3a08052 	mov	r8, #82	; 0x52
     2e0:	ea000042 	b	3f0 <initializeBoard+0x194>

	//initializing the gameBoard variable
	int x = 0, y = 0;
	for(x = 0; x < 5; x++) {
		for(y = 0; y < 5; y++) {
			if(x == 0 && y == 0) { //red start
     2e4:	e1930001 	orrs	r0, r3, r1
				gameBoard[x][y] = 'r';
     2e8:	05c24000 	strbeq	r4, [r2]

	//initializing the gameBoard variable
	int x = 0, y = 0;
	for(x = 0; x < 5; x++) {
		for(y = 0; y < 5; y++) {
			if(x == 0 && y == 0) { //red start
     2ec:	0a000038 	beq	3d4 <initializeBoard+0x178>
				gameBoard[x][y] = 'r';
			} else if(y == 1 && x == 4) { //red end
     2f0:	e3530001 	cmp	r3, #1
     2f4:	13a00000 	movne	r0, #0
     2f8:	03a00001 	moveq	r0, #1
     2fc:	e3510004 	cmp	r1, #4
     300:	13a0c000 	movne	r12, #0
     304:	03a0c001 	moveq	r12, #1
     308:	e110000c 	tst	r0, r12
				gameBoard[x][y] = 'R';
     30c:	15c28000 	strbne	r8, [r2]
	int x = 0, y = 0;
	for(x = 0; x < 5; x++) {
		for(y = 0; y < 5; y++) {
			if(x == 0 && y == 0) { //red start
				gameBoard[x][y] = 'r';
			} else if(y == 1 && x == 4) { //red end
     310:	1a00002f 	bne	3d4 <initializeBoard+0x178>
				gameBoard[x][y] = 'R';
			} else if(y == 2 && x == 0) { //green start
     314:	e3530002 	cmp	r3, #2
     318:	13a05000 	movne	r5, #0
     31c:	03a05001 	moveq	r5, #1
     320:	e2716001 	rsbs	r6, r1, #1
     324:	33a06000 	movcc	r6, #0
     328:	e1150006 	tst	r5, r6
				gameBoard[x][y] = 'g';
     32c:	15c2b000 	strbne	r11, [r2]
		for(y = 0; y < 5; y++) {
			if(x == 0 && y == 0) { //red start
				gameBoard[x][y] = 'r';
			} else if(y == 1 && x == 4) { //red end
				gameBoard[x][y] = 'R';
			} else if(y == 2 && x == 0) { //green start
     330:	1a000027 	bne	3d4 <initializeBoard+0x178>
				gameBoard[x][y] = 'g';
			} else if(y == 1 && x == 3) { //green end
     334:	e3510003 	cmp	r1, #3
     338:	13a0a000 	movne	r10, #0
     33c:	03a0a001 	moveq	r10, #1
     340:	e110000a 	tst	r0, r10
				gameBoard[x][y] = 'G';
     344:	13a00047 	movne	r0, #71	; 0x47
     348:	15c20000 	strbne	r0, [r2]
				gameBoard[x][y] = 'r';
			} else if(y == 1 && x == 4) { //red end
				gameBoard[x][y] = 'R';
			} else if(y == 2 && x == 0) { //green start
				gameBoard[x][y] = 'g';
			} else if(y == 1 && x == 3) { //green end
     34c:	1a000020 	bne	3d4 <initializeBoard+0x178>
				gameBoard[x][y] = 'G';
			} else if(y == 2 && x == 4) { //blue start
     350:	e115000c 	tst	r5, r12
				gameBoard[x][y] = 'b';
     354:	13a00062 	movne	r0, #98	; 0x62
     358:	15c20000 	strbne	r0, [r2]
				gameBoard[x][y] = 'R';
			} else if(y == 2 && x == 0) { //green start
				gameBoard[x][y] = 'g';
			} else if(y == 1 && x == 3) { //green end
				gameBoard[x][y] = 'G';
			} else if(y == 2 && x == 4) { //blue start
     35c:	1a00001c 	bne	3d4 <initializeBoard+0x178>
				gameBoard[x][y] = 'b';
			} else if(y == 2 && x == 1) { //blue end
     360:	e3510001 	cmp	r1, #1
     364:	13a00000 	movne	r0, #0
     368:	03a00001 	moveq	r0, #1
     36c:	e1150000 	tst	r5, r0
				gameBoard[x][y] = 'B';
     370:	13a00042 	movne	r0, #66	; 0x42
     374:	15c20000 	strbne	r0, [r2]
				gameBoard[x][y] = 'g';
			} else if(y == 1 && x == 3) { //green end
				gameBoard[x][y] = 'G';
			} else if(y == 2 && x == 4) { //blue start
				gameBoard[x][y] = 'b';
			} else if(y == 2 && x == 1) { //blue end
     378:	1a000015 	bne	3d4 <initializeBoard+0x178>
				gameBoard[x][y] = 'B';
			} else if(y == 4 && x == 0) { //yellow start
     37c:	e3530004 	cmp	r3, #4
     380:	13a05000 	movne	r5, #0
     384:	03a05001 	moveq	r5, #1
     388:	e1150006 	tst	r5, r6
				gameBoard[x][y] = 'y';
     38c:	13a00079 	movne	r0, #121	; 0x79
     390:	15c20000 	strbne	r0, [r2]
				gameBoard[x][y] = 'G';
			} else if(y == 2 && x == 4) { //blue start
				gameBoard[x][y] = 'b';
			} else if(y == 2 && x == 1) { //blue end
				gameBoard[x][y] = 'B';
			} else if(y == 4 && x == 0) { //yellow start
     394:	1a00000e 	bne	3d4 <initializeBoard+0x178>
				gameBoard[x][y] = 'y';
			} else if(y == 3 && x == 3) { //yellow end
     398:	e3530003 	cmp	r3, #3
     39c:	13a06000 	movne	r6, #0
     3a0:	03a06001 	moveq	r6, #1
     3a4:	e116000a 	tst	r6, r10
				gameBoard[x][y] = 'Y';
     3a8:	13a00059 	movne	r0, #89	; 0x59
     3ac:	15c20000 	strbne	r0, [r2]
				gameBoard[x][y] = 'b';
			} else if(y == 2 && x == 1) { //blue end
				gameBoard[x][y] = 'B';
			} else if(y == 4 && x == 0) { //yellow start
				gameBoard[x][y] = 'y';
			} else if(y == 3 && x == 3) { //yellow end
     3b0:	1a000007 	bne	3d4 <initializeBoard+0x178>
				gameBoard[x][y] = 'Y';
			} else if(y == 3 && x == 4) { //orange start
     3b4:	e116000c 	tst	r6, r12
				gameBoard[x][y] = 'o';
     3b8:	13a0006f 	movne	r0, #111	; 0x6f
     3bc:	15c20000 	strbne	r0, [r2]
				gameBoard[x][y] = 'B';
			} else if(y == 4 && x == 0) { //yellow start
				gameBoard[x][y] = 'y';
			} else if(y == 3 && x == 3) { //yellow end
				gameBoard[x][y] = 'Y';
			} else if(y == 3 && x == 4) { //orange start
     3c0:	1a000003 	bne	3d4 <initializeBoard+0x178>
				gameBoard[x][y] = 'o';
			} else if(y == 4 && x == 1) { //orange end
     3c4:	e1150000 	tst	r5, r0
				gameBoard[x][y] = 'O';
     3c8:	13a0004f 	movne	r0, #79	; 0x4f
			} else { //all other non-occupied places
				gameBoard[x][y] = '0';
     3cc:	03a00030 	moveq	r0, #48	; 0x30
     3d0:	e5c20000 	strb	r0, [r2]
    board [3][4] = 5;

	//initializing the gameBoard variable
	int x = 0, y = 0;
	for(x = 0; x < 5; x++) {
		for(y = 0; y < 5; y++) {
     3d4:	e2833001 	add	r3, r3, #1
     3d8:	e2822001 	add	r2, r2, #1
     3dc:	e3530005 	cmp	r3, #5
     3e0:	1affffbf 	bne	2e4 <initializeBoard+0x88>
    board [4][1] = 5;
    board [3][4] = 5;

	//initializing the gameBoard variable
	int x = 0, y = 0;
	for(x = 0; x < 5; x++) {
     3e4:	e2811001 	add	r1, r1, #1
     3e8:	e3510005 	cmp	r1, #5
     3ec:	0a000004 	beq	404 <initializeBoard+0x1a8>

//reset functions
void resetGame(bool reset, int board[][COLS]);


void initializeBoard (int board[][COLS]) {
     3f0:	e0812101 	add	r2, r1, r1, lsl #2
     3f4:	e0872002 	add	r2, r7, r2
     3f8:	e1a03009 	mov	r3, r9
	//initializing the gameBoard variable
	int x = 0, y = 0;
	for(x = 0; x < 5; x++) {
		for(y = 0; y < 5; y++) {
			if(x == 0 && y == 0) { //red start
				gameBoard[x][y] = 'r';
     3fc:	e3a04072 	mov	r4, #114	; 0x72
     400:	eaffffb7 	b	2e4 <initializeBoard+0x88>
				gameBoard[x][y] = '0';
			}
		}
	}

}
     404:	e8bd0ff0 	pop	{r4, r5, r6, r7, r8, r9, r10, r11}
     408:	e12fff1e 	bx	lr

0000040c <plot_pixel>:
    return 0;
}

void plot_pixel(int x, int y, short int line_color)
{
    *(short int *)(pixel_buffer_start + (y << 10) + (x << 1)) = line_color;
     40c:	e30f3314 	movw	r3, #62228	; 0xf314
     410:	e3403001 	movt	r3, #1
     414:	e593301c 	ldr	r3, [r3, #28]
     418:	e1a00080 	lsl	r0, r0, #1
     41c:	e0831501 	add	r1, r3, r1, lsl #10
     420:	e18120b0 	strh	r2, [r1, r0]
     424:	e12fff1e 	bx	lr

00000428 <draw_piece>:
}

void draw_piece(int piecex, int piecey, int currDirection, short int color) {
     428:	e92d4ff0 	push	{r4, r5, r6, r7, r8, r9, r10, r11, lr}
     42c:	e24dd00c 	sub	sp, sp, #12
     430:	e1a05002 	mov	r5, r2
     434:	e1a08003 	mov	r8, r3
    int actualx = piecex * 64 + 23;
     438:	e1a00300 	lsl	r0, r0, #6
    int actualy = piecey * 48 + 16;
     43c:	e0811081 	add	r1, r1, r1, lsl #1
     440:	e1a06201 	lsl	r6, r1, #4
     444:	e286b010 	add	r11, r6, #16
{
    *(short int *)(pixel_buffer_start + (y << 10) + (x << 1)) = line_color;
}

void draw_piece(int piecex, int piecey, int currDirection, short int color) {
    int actualx = piecex * 64 + 23;
     448:	e2807017 	add	r7, r0, #23
void plot_pixel(int x, int y, short int line_color)
{
    *(short int *)(pixel_buffer_start + (y << 10) + (x << 1)) = line_color;
}

void draw_piece(int piecex, int piecey, int currDirection, short int color) {
     44c:	e2800028 	add	r0, r0, #40	; 0x28
     450:	e58d0004 	str	r0, [sp, #4]
     454:	e2866021 	add	r6, r6, #33	; 0x21
     458:	ea000021 	b	4e4 <draw_piece+0xbc>
    int actualy = piecey * 48 + 16;
    int x = 0;
    int y = 0;
    for (x = 0; x <= 16; x++) {
        for (y = 0; y <= 16; y++) {
            if (currDirection == 1) { //UP
     45c:	e3550001 	cmp	r5, #1
     460:	1a000004 	bne	478 <draw_piece+0x50>
                plot_pixel(actualx + x, actualy + y - 48, color);
     464:	e1a00007 	mov	r0, r7
     468:	e2441030 	sub	r1, r4, #48	; 0x30
     46c:	e1a02008 	mov	r2, r8
     470:	ebffffe5 	bl	40c <plot_pixel>
     474:	ea000013 	b	4c8 <draw_piece+0xa0>
            } else if (currDirection == 2) { // LEFT
     478:	e3550002 	cmp	r5, #2
     47c:	1a000004 	bne	494 <draw_piece+0x6c>
                plot_pixel(actualx + x - 64, actualy + y, color);
     480:	e1a0000a 	mov	r0, r10
     484:	e1a01004 	mov	r1, r4
     488:	e1a02008 	mov	r2, r8
     48c:	ebffffde 	bl	40c <plot_pixel>
     490:	ea00000c 	b	4c8 <draw_piece+0xa0>
            } else if (currDirection == 3) { // DOWN
     494:	e3550003 	cmp	r5, #3
     498:	1a000004 	bne	4b0 <draw_piece+0x88>
                plot_pixel(actualx + x, actualy + y + 48, color);
     49c:	e1a00007 	mov	r0, r7
     4a0:	e2841030 	add	r1, r4, #48	; 0x30
     4a4:	e1a02008 	mov	r2, r8
     4a8:	ebffffd7 	bl	40c <plot_pixel>
     4ac:	ea000005 	b	4c8 <draw_piece+0xa0>
            } else if (currDirection == 4) { // RIGHT
     4b0:	e3550004 	cmp	r5, #4
     4b4:	1a000003 	bne	4c8 <draw_piece+0xa0>
                plot_pixel(actualx + x + 64, actualy + y, color);
     4b8:	e1a00009 	mov	r0, r9
     4bc:	e1a01004 	mov	r1, r4
     4c0:	e1a02008 	mov	r2, r8
     4c4:	ebffffd0 	bl	40c <plot_pixel>
     4c8:	e2844001 	add	r4, r4, #1
    int actualx = piecex * 64 + 23;
    int actualy = piecey * 48 + 16;
    int x = 0;
    int y = 0;
    for (x = 0; x <= 16; x++) {
        for (y = 0; y <= 16; y++) {
     4cc:	e1540006 	cmp	r4, r6
     4d0:	1affffe1 	bne	45c <draw_piece+0x34>
     4d4:	e2877001 	add	r7, r7, #1
void draw_piece(int piecex, int piecey, int currDirection, short int color) {
    int actualx = piecex * 64 + 23;
    int actualy = piecey * 48 + 16;
    int x = 0;
    int y = 0;
    for (x = 0; x <= 16; x++) {
     4d8:	e59d3004 	ldr	r3, [sp, #4]
     4dc:	e1570003 	cmp	r7, r3
     4e0:	0a000003 	beq	4f4 <draw_piece+0xcc>
     4e4:	e1a0400b 	mov	r4, r11
void plot_pixel(int x, int y, short int line_color)
{
    *(short int *)(pixel_buffer_start + (y << 10) + (x << 1)) = line_color;
}

void draw_piece(int piecex, int piecey, int currDirection, short int color) {
     4e8:	e2879040 	add	r9, r7, #64	; 0x40
     4ec:	e247a040 	sub	r10, r7, #64	; 0x40
     4f0:	eaffffd9 	b	45c <draw_piece+0x34>
            } else if (currDirection == 4) { // RIGHT
                plot_pixel(actualx + x + 64, actualy + y, color);
            }
        }
    }
}
     4f4:	e28dd00c 	add	sp, sp, #12
     4f8:	e8bd8ff0 	pop	{r4, r5, r6, r7, r8, r9, r10, r11, pc}

000004fc <fill_color>:
		}
    }
}


void fill_color(int x, int y, short int color) {
     4fc:	e92d45f8 	push	{r3, r4, r5, r6, r7, r8, r10, lr}
     500:	e1a07002 	mov	r7, r2
//printf("position (x,y): " );
     int xpos =  x * 64;
     504:	e1a05300 	lsl	r5, r0, #6
     int ypos =  y * 48;
     508:	e0811081 	add	r1, r1, r1, lsl #1
     50c:	e1a08201 	lsl	r8, r1, #4
    // //printf("\n");
    //
    int tempX = xpos;
    int tempY = ypos;
    //
    for (xpos = x * 64; xpos < (tempX + 64); xpos++) {
     510:	e285a040 	add	r10, r5, #64	; 0x40
     514:	e155000a 	cmp	r5, r10
     518:	a8bd85f8 	popge	{r3, r4, r5, r6, r7, r8, r10, pc}
     51c:	ea00000a 	b	54c <fill_color+0x50>
        for (ypos = y * 48; ypos < (tempY + 48); ypos++) {
            plot_pixel(xpos, ypos, color);
     520:	e1a00005 	mov	r0, r5
     524:	e1a01004 	mov	r1, r4
     528:	e1a02007 	mov	r2, r7
     52c:	ebffffb6 	bl	40c <plot_pixel>
    //
    int tempX = xpos;
    int tempY = ypos;
    //
    for (xpos = x * 64; xpos < (tempX + 64); xpos++) {
        for (ypos = y * 48; ypos < (tempY + 48); ypos++) {
     530:	e2844001 	add	r4, r4, #1
     534:	e1540006 	cmp	r4, r6
     538:	1afffff8 	bne	520 <fill_color+0x24>
    // //printf("\n");
    //
    int tempX = xpos;
    int tempY = ypos;
    //
    for (xpos = x * 64; xpos < (tempX + 64); xpos++) {
     53c:	e2855001 	add	r5, r5, #1
     540:	e155000a 	cmp	r5, r10
     544:	1a000001 	bne	550 <fill_color+0x54>
     548:	e8bd85f8 	pop	{r3, r4, r5, r6, r7, r8, r10, pc}
        for (ypos = y * 48; ypos < (tempY + 48); ypos++) {
     54c:	e2886030 	add	r6, r8, #48	; 0x30
     550:	e1580006 	cmp	r8, r6
     554:	b1a04008 	movlt	r4, r8
     558:	bafffff0 	blt	520 <fill_color+0x24>
     55c:	eafffff6 	b	53c <fill_color+0x40>

00000560 <wait_for_vsync>:
void wait_for_vsync() {

    volatile int * pixel_ctrl_ptr = (int *)0xFF203020;

    //step 1: write a 1 to the front buffer
    *pixel_ctrl_ptr = 1;
     560:	e3033fff 	movw	r3, #16383	; 0x3fff
     564:	e34f3f20 	movt	r3, #65312	; 0xff20
     568:	e3a02001 	mov	r2, #1
     56c:	e5032fdf 	str	r2, [r3, #-4063]	; 0xfffff021

    //setp 2: poll the status, + 3 means 3 bytes.
    register int status = *(pixel_ctrl_ptr + 3);
     570:	e5133fd3 	ldr	r3, [r3, #-4051]	; 0xfffff02d

    //step  3: check conditions
    //while status is 1, status is equal to whatever the S bit is.
    // if status is 0, this means the swap happens and it breaks out of the loop
    while((status & 0x01) != 0) {
     574:	e3130001 	tst	r3, #1
     578:	012fff1e 	bxeq	lr
		status = *(pixel_ctrl_ptr + 3);
     57c:	e3032fff 	movw	r2, #16383	; 0x3fff
     580:	e34f2f20 	movt	r2, #65312	; 0xff20
     584:	e5123fd3 	ldr	r3, [r2, #-4051]	; 0xfffff02d
    register int status = *(pixel_ctrl_ptr + 3);

    //step  3: check conditions
    //while status is 1, status is equal to whatever the S bit is.
    // if status is 0, this means the swap happens and it breaks out of the loop
    while((status & 0x01) != 0) {
     588:	e3130001 	tst	r3, #1
     58c:	1afffffc 	bne	584 <wait_for_vsync+0x24>
     590:	e12fff1e 	bx	lr

00000594 <clear_screen>:
		status = *(pixel_ctrl_ptr + 3);
	}
}

//ISS C
void clear_screen () {
     594:	e92d4070 	push	{r4, r5, r6, lr}
    int x, y;
    for (x = 0; x < 320; x++) {
     598:	e3a05000 	mov	r5, #0
		status = *(pixel_ctrl_ptr + 3);
	}
}

//ISS C
void clear_screen () {
     59c:	e1a06005 	mov	r6, r5
     5a0:	ea000009 	b	5cc <clear_screen+0x38>
    int x, y;
    for (x = 0; x < 320; x++) {
        for (y = 0; y < 240; y++) {
            plot_pixel(x, y, 0x0000);
     5a4:	e1a00005 	mov	r0, r5
     5a8:	e1a01004 	mov	r1, r4
     5ac:	e1a02006 	mov	r2, r6
     5b0:	ebffff95 	bl	40c <plot_pixel>

//ISS C
void clear_screen () {
    int x, y;
    for (x = 0; x < 320; x++) {
        for (y = 0; y < 240; y++) {
     5b4:	e2844001 	add	r4, r4, #1
     5b8:	e35400f0 	cmp	r4, #240	; 0xf0
     5bc:	1afffff8 	bne	5a4 <clear_screen+0x10>
}

//ISS C
void clear_screen () {
    int x, y;
    for (x = 0; x < 320; x++) {
     5c0:	e2855001 	add	r5, r5, #1
     5c4:	e3550d05 	cmp	r5, #320	; 0x140
     5c8:	08bd8070 	popeq	{r4, r5, r6, pc}
		status = *(pixel_ctrl_ptr + 3);
	}
}

//ISS C
void clear_screen () {
     5cc:	e1a04006 	mov	r4, r6
     5d0:	eafffff3 	b	5a4 <clear_screen+0x10>

000005d4 <swap>:
    }
}

void swap (int* a, int* b) {
    int temp;
    temp = *b;
     5d4:	e5913000 	ldr	r3, [r1]
    *b = *a;
     5d8:	e5902000 	ldr	r2, [r0]
     5dc:	e5812000 	str	r2, [r1]
    *a = temp;
     5e0:	e5803000 	str	r3, [r0]
     5e4:	e12fff1e 	bx	lr

000005e8 <draw_line>:
}
//alogrithm
void draw_line(int x0, int x1, int y0, int y1, short int line_color)
{
     5e8:	e92d4ff0 	push	{r4, r5, r6, r7, r8, r9, r10, r11, lr}
     5ec:	e24dd014 	sub	sp, sp, #20
     5f0:	e58d000c 	str	r0, [sp, #12]
     5f4:	e58d1008 	str	r1, [sp, #8]
     5f8:	e58d2004 	str	r2, [sp, #4]
     5fc:	e58d3000 	str	r3, [sp]
     600:	e1dda3f8 	ldrsh	r10, [sp, #56]	; 0x38
    bool is_steep  = abs(y1 - y0) > abs(x1 - x0);
     604:	e0623003 	rsb	r3, r2, r3
     608:	e3530000 	cmp	r3, #0
     60c:	b2633000 	rsblt	r3, r3, #0
     610:	e0601001 	rsb	r1, r0, r1
     614:	e0218fc1 	eor	r8, r1, r1, asr #31
     618:	e0488fc1 	sub	r8, r8, r1, asr #31
     61c:	e1530008 	cmp	r3, r8
     620:	d3a08000 	movle	r8, #0
     624:	c3a08001 	movgt	r8, #1

// might be here:
    if (is_steep) {
     628:	e3580000 	cmp	r8, #0
     62c:	0a000005 	beq	648 <draw_line+0x60>
        swap(&x0, &y0);
     630:	e28d000c 	add	r0, sp, #12
     634:	e28d1004 	add	r1, sp, #4
     638:	ebffffe5 	bl	5d4 <swap>
        swap(&x1, &y1);
     63c:	e28d0008 	add	r0, sp, #8
     640:	e1a0100d 	mov	r1, sp
     644:	ebffffe2 	bl	5d4 <swap>
    }

    if (x0 > x1) {
     648:	e59d3008 	ldr	r3, [sp, #8]
     64c:	e59d200c 	ldr	r2, [sp, #12]
     650:	e1520003 	cmp	r2, r3
     654:	da000005 	ble	670 <draw_line+0x88>
        swap(&x0, &x1);
     658:	e28d000c 	add	r0, sp, #12
     65c:	e28d1008 	add	r1, sp, #8
     660:	ebffffdb 	bl	5d4 <swap>
        swap(&y0, &y1);
     664:	e28d0004 	add	r0, sp, #4
     668:	e1a0100d 	mov	r1, sp
     66c:	ebffffd8 	bl	5d4 <swap>
    }

    int deltax = x1 - x0;
     670:	e59d3008 	ldr	r3, [sp, #8]
     674:	e59d500c 	ldr	r5, [sp, #12]
     678:	e0659003 	rsb	r9, r5, r3
    int deltay = abs(y1 - y0);
     67c:	e59d2000 	ldr	r2, [sp]
     680:	e59d6004 	ldr	r6, [sp, #4]
     684:	e0667002 	rsb	r7, r6, r2
     688:	e3570000 	cmp	r7, #0
     68c:	b2677000 	rsblt	r7, r7, #0
    int error = -(deltax / 2);
     690:	e0894fa9 	add	r4, r9, r9, lsr #31
     694:	e1a040c4 	asr	r4, r4, #1
     698:	e2644000 	rsb	r4, r4, #0
    int y = y0;
    int y_step;

    if (y0 < y1) {
        y_step = 1;
     69c:	e1520006 	cmp	r2, r6
     6a0:	d3e0b000 	mvnle	r11, #0
     6a4:	c3a0b001 	movgt	r11, #1
    } else {
        y_step = -1;
    }

    int x = x0;
    for (x = x0; x < x1 + 1; x++) {
     6a8:	e2833001 	add	r3, r3, #1
     6ac:	e1550003 	cmp	r5, r3
     6b0:	aa00000e 	bge	6f0 <draw_line+0x108>
        if (is_steep) {
     6b4:	e3580000 	cmp	r8, #0
            plot_pixel(y, x, line_color);
     6b8:	11a00006 	movne	r0, r6
     6bc:	11a01005 	movne	r1, r5
        } else {
            plot_pixel(x, y, line_color);
     6c0:	01a00005 	moveq	r0, r5
     6c4:	01a01006 	moveq	r1, r6
     6c8:	e1a0200a 	mov	r2, r10
     6cc:	ebffff4e 	bl	40c <plot_pixel>
        }

        error = error + deltay;

        if (error >= 0) {
     6d0:	e0944007 	adds	r4, r4, r7
            y = y + y_step;
     6d4:	5086600b 	addpl	r6, r6, r11
            error = error - deltax;
     6d8:	50694004 	rsbpl	r4, r9, r4
    } else {
        y_step = -1;
    }

    int x = x0;
    for (x = x0; x < x1 + 1; x++) {
     6dc:	e2855001 	add	r5, r5, #1
     6e0:	e59d3008 	ldr	r3, [sp, #8]
     6e4:	e2833001 	add	r3, r3, #1
     6e8:	e1530005 	cmp	r3, r5
     6ec:	cafffff0 	bgt	6b4 <draw_line+0xcc>
        if (error >= 0) {
            y = y + y_step;
            error = error - deltax;
        }
    }
}
     6f0:	e28dd014 	add	sp, sp, #20
     6f4:	e8bd8ff0 	pop	{r4, r5, r6, r7, r8, r9, r10, r11, pc}

000006f8 <enable_A9_interrupts>:

// CODE BELOW ARE INTERUPT RELATED:
/*Turn on interrupts in the ARM processor*/
void enable_A9_interrupts() {
	int status = 0b01010011;
	asm("msr cpsr, %[ps]" : : [ps]"r"(status));
     6f8:	e3a03053 	mov	r3, #83	; 0x53
     6fc:	e129f003 	msr	CPSR_fc, r3
     700:	e12fff1e 	bx	lr

00000704 <disable_A9_interrupts>:
}

/*Turn off interrupts in the ARM processor*/
void disable_A9_interrupts() {
	int status = 0b11010011;
	asm("msr cpsr, %[ps]" : : [ps]"r"(status));
     704:	e3a030d3 	mov	r3, #211	; 0xd3
     708:	e129f003 	msr	CPSR_fc, r3
     70c:	e12fff1e 	bx	lr

00000710 <config_interrupt>:
	// Configure the Distributor Control Register (ICDDCR) to send pending interrupts to CPUs
	*((int *) 0xFFFED000) = 1;
}

/* Configure Set Enable Registers (ICDISERn) and Interrupt Processor Target Registers (ICDIPTRn). The default (reset) values are used for other registers in the GIC.*/
void config_interrupt (int N, int CPU_target) {
     710:	e52d4004 	push	{r4}		; (str r4, [sp, #-4]!)
	int reg_offset, index, value, address;

	/* Configure the Interrupt Set-Enable Registers (ICDISERn).
	* reg_offset = (integer_div(N / 32) * 4
	* value = 1 << (N mod 32) */
	reg_offset = (N >> 3) & 0xFFFFFFFC;
     714:	e1a031c0 	asr	r3, r0, #3
     718:	e3c33003 	bic	r3, r3, #3
	index = N & 0x1F;
	value = 0x1 << index;
	address = 0xFFFED100 + reg_offset;
     71c:	e2433b4b 	sub	r3, r3, #76800	; 0x12c00

	/* Configure the Interrupt Set-Enable Registers (ICDISERn).
	* reg_offset = (integer_div(N / 32) * 4
	* value = 1 << (N mod 32) */
	reg_offset = (N >> 3) & 0xFFFFFFFC;
	index = N & 0x1F;
     720:	e200201f 	and	r2, r0, #31
	value = 0x1 << index;
	address = 0xFFFED100 + reg_offset;

	/* Now that we know the register address and value, set the appropriate bit */
	*(int *)address |= value;
     724:	e513c300 	ldr	r12, [r3, #-768]	; 0xfffffd00
     728:	e3a04001 	mov	r4, #1
     72c:	e18c2214 	orr	r2, r12, r4, lsl r2
     730:	e5032300 	str	r2, [r3, #-768]	; 0xfffffd00
	reg_offset = (N & 0xFFFFFFFC);
	index = N & 0x3;
	address = 0xFFFED800 + reg_offset + index;

	/* Now that we know the register address and value, write to (only) the appropriate byte */
	*(char *)address = (char) CPU_target;
     734:	e2400b4a 	sub	r0, r0, #75776	; 0x12800
     738:	e5c01000 	strb	r1, [r0]
}
     73c:	e8bd0010 	ldmfd	sp!, {r4}
     740:	e12fff1e 	bx	lr

00000744 <config_GIC>:
	int status = 0b11010011;
	asm("msr cpsr, %[ps]" : : [ps]"r"(status));
}

/* Configure the Generic Interrupt Controller (GIC)*/
void config_GIC() {
     744:	e92d4008 	push	{r3, lr}
	config_interrupt(79, 1); //configure the PS2 keyboard parallel port
     748:	e3a0004f 	mov	r0, #79	; 0x4f
     74c:	e3a01001 	mov	r1, #1
     750:	ebffffee 	bl	710 <config_interrupt>
	config_interrupt(73, 1); //configure KEY interrupts
     754:	e3a00049 	mov	r0, #73	; 0x49
     758:	e3a01001 	mov	r1, #1
     75c:	ebffffeb 	bl	710 <config_interrupt>

	// Set Interrupt Priority Mask Register (ICCPMR). Enable interrupts of all priorities
	*((int *) 0xFFFEC104) = 0xFFFF;
     760:	e3e02a13 	mvn	r2, #77824	; 0x13000
     764:	e30f3fff 	movw	r3, #65535	; 0xffff
     768:	e5023efb 	str	r3, [r2, #-3835]	; 0xfffff105

	// Set CPU Interface Control Register (ICCICR). Enable signaling of interrupts
	*((int *) 0xFFFEC100) = 1;
     76c:	e3a03001 	mov	r3, #1
     770:	e5023eff 	str	r3, [r2, #-3839]	; 0xfffff101

	// Configure the Distributor Control Register (ICDDCR) to send pending interrupts to CPUs
	*((int *) 0xFFFED000) = 1;
     774:	e3e02a12 	mvn	r2, #73728	; 0x12000
     778:	e5023fff 	str	r3, [r2, #-4095]	; 0xfffff001
     77c:	e8bd8008 	pop	{r3, pc}

00000780 <config_KEYs>:
}

/* setup the KEY interrupts */
void config_KEYs() {
	volatile int * KEY_ptr = (int *) 0xFF200050; // KEY base address
	*(KEY_ptr + 2) = 0xF; // enable interrupts for all four KEYs
     780:	e3a03000 	mov	r3, #0
     784:	e34f3f20 	movt	r3, #65312	; 0xff20
     788:	e3a0200f 	mov	r2, #15
     78c:	e5832058 	str	r2, [r3, #88]	; 0x58
     790:	e12fff1e 	bx	lr

00000794 <config_PS2s>:

/* setup the PS2 interrupts in the FPGA */
void config_PS2s() {
	volatile int* PS2_ptr = (int*)0xFF200100; // PS2 base address
	volatile int* PS2_ptr_interrupt = (int*)0xFF200104;
	*(PS2_ptr_interrupt) = 0x1; // enable interrupts for PS/2 by writing 1 to RE field at address 0xFF200104
     794:	e3a03000 	mov	r3, #0
     798:	e34f3f20 	movt	r3, #65312	; 0xff20
     79c:	e3a02001 	mov	r2, #1
     7a0:	e5832104 	str	r2, [r3, #260]	; 0x104
     7a4:	e12fff1e 	bx	lr

000007a8 <PS2_ISR>:
// use global variables.

 void PS2_ISR() { //determine which button on the keyboard was pressed: W,A,S,D or other, and display on HEX
	//clear the interrupt
	volatile int* PS2_ptr_interrupt = (int*)0xFF200104;
	*(PS2_ptr_interrupt) = 0b100000001;
     7a8:	e3a03000 	mov	r3, #0
     7ac:	e34f3f20 	movt	r3, #65312	; 0xff20
     7b0:	e3002101 	movw	r2, #257	; 0x101
     7b4:	e5832104 	str	r2, [r3, #260]	; 0x104
	volatile int *RLEDs = (int *) 0xFF200000;

	int PS2_data, RAVAIL, RVALID, data, LED;
	//const int W = 0x1D, A = 0x1C, S = 0x1B, D = 0x23;

	PS2_data = *(PS2_ptr);
     7b8:	e5932100 	ldr	r2, [r3, #256]	; 0x100
	RAVAIL = (PS2_data & 0xFFFF0000) >> 16;

	if(RAVAIL > 0) {
     7bc:	e1b03822 	lsrs	r3, r2, #16
     7c0:	0a00005a 	beq	930 <PS2_ISR+0x188>
		byte1 = byte2;
     7c4:	e30f3314 	movw	r3, #62228	; 0xf314
     7c8:	e3403001 	movt	r3, #1
     7cc:	e5d30020 	ldrb	r0, [r3, #32]
     7d0:	e5c30021 	strb	r0, [r3, #33]	; 0x21
		byte2 = data;
     7d4:	e3a00000 	mov	r0, #0
     7d8:	e5c30020 	strb	r0, [r3, #32]
		data = PS2_data & 0xFF;
     7dc:	e6ef3072 	uxtb	r3, r2

		//determine the direction of movement (W/A/S/D)

		//if(byte1 != data) {
			if(data == 0x1D) {
     7e0:	e353001d 	cmp	r3, #29
     7e4:	1a000004 	bne	7fc <PS2_ISR+0x54>
				//LED = 0x1D;
				keyPressed = 'W';
     7e8:	e30f3314 	movw	r3, #62228	; 0xf314
     7ec:	e3403001 	movt	r3, #1
     7f0:	e3a02057 	mov	r2, #87	; 0x57
     7f4:	e5c32022 	strb	r2, [r3, #34]	; 0x22
     7f8:	ea00004c 	b	930 <PS2_ISR+0x188>

				//printf("W pressed\n");
			} else if(data == 0x1C) {
     7fc:	e353001c 	cmp	r3, #28
     800:	1a000005 	bne	81c <PS2_ISR+0x74>
				LED = 0x1C;

                //Vertical Line

				keyPressed = 'A';
     804:	e30f3314 	movw	r3, #62228	; 0xf314
     808:	e3403001 	movt	r3, #1
     80c:	e3a02041 	mov	r2, #65	; 0x41
     810:	e5c32022 	strb	r2, [r3, #34]	; 0x22
				//LED = 0x1D;
				keyPressed = 'W';

				//printf("W pressed\n");
			} else if(data == 0x1C) {
				LED = 0x1C;
     814:	e3a0101c 	mov	r1, #28
     818:	ea000044 	b	930 <PS2_ISR+0x188>

                //Vertical Line

				keyPressed = 'A';
				//printf("A pressed\n");
			} else if(data == 0x1B) {
     81c:	e353001b 	cmp	r3, #27
     820:	1a000005 	bne	83c <PS2_ISR+0x94>
				LED = 0x1B;
				keyPressed = 'S';
     824:	e30f3314 	movw	r3, #62228	; 0xf314
     828:	e3403001 	movt	r3, #1
     82c:	e3a02053 	mov	r2, #83	; 0x53
     830:	e5c32022 	strb	r2, [r3, #34]	; 0x22
                //Vertical Line

				keyPressed = 'A';
				//printf("A pressed\n");
			} else if(data == 0x1B) {
				LED = 0x1B;
     834:	e3a0101b 	mov	r1, #27
     838:	ea00003c 	b	930 <PS2_ISR+0x188>
				keyPressed = 'S';
				//printf("S pressed\n");
			} else if(data == 0x23) {
     83c:	e3530023 	cmp	r3, #35	; 0x23
     840:	1a000005 	bne	85c <PS2_ISR+0xb4>
				LED = 0x23;
				keyPressed = 'D';
     844:	e30f3314 	movw	r3, #62228	; 0xf314
     848:	e3403001 	movt	r3, #1
     84c:	e3a02044 	mov	r2, #68	; 0x44
     850:	e5c32022 	strb	r2, [r3, #34]	; 0x22
			} else if(data == 0x1B) {
				LED = 0x1B;
				keyPressed = 'S';
				//printf("S pressed\n");
			} else if(data == 0x23) {
				LED = 0x23;
     854:	e3a01023 	mov	r1, #35	; 0x23
     858:	ea000034 	b	930 <PS2_ISR+0x188>
				keyPressed = 'D';
				//printf("D pressed\n");

			//determine the color to move (R/G/B/Y/O)
			} else if(data == 0x16) {
     85c:	e3530016 	cmp	r3, #22
     860:	1a000007 	bne	884 <PS2_ISR+0xdc>
				LED = 0x16;
				keyPressed = '1';
     864:	e30f3314 	movw	r3, #62228	; 0xf314
     868:	e3403001 	movt	r3, #1
     86c:	e3a02031 	mov	r2, #49	; 0x31
     870:	e5c32022 	strb	r2, [r3, #34]	; 0x22
				color_select = RED;
     874:	e3a02001 	mov	r2, #1
     878:	e5832024 	str	r2, [r3, #36]	; 0x24
				keyPressed = 'D';
				//printf("D pressed\n");

			//determine the color to move (R/G/B/Y/O)
			} else if(data == 0x16) {
				LED = 0x16;
     87c:	e3a01016 	mov	r1, #22
     880:	ea00002a 	b	930 <PS2_ISR+0x188>
				keyPressed = '1';
				color_select = RED;
				//color = 'R';
				//printf("1 pressed\n");
			} else if(data == 0x1E) {
     884:	e353001e 	cmp	r3, #30
     888:	1a000007 	bne	8ac <PS2_ISR+0x104>
				LED = 0x1E;
				//color = 'G';
				keyPressed = '2';
     88c:	e30f3314 	movw	r3, #62228	; 0xf314
     890:	e3403001 	movt	r3, #1
     894:	e3a02032 	mov	r2, #50	; 0x32
     898:	e5c32022 	strb	r2, [r3, #34]	; 0x22
				color_select =  GREEN;
     89c:	e3a02002 	mov	r2, #2
     8a0:	e5832024 	str	r2, [r3, #36]	; 0x24
				keyPressed = '1';
				color_select = RED;
				//color = 'R';
				//printf("1 pressed\n");
			} else if(data == 0x1E) {
				LED = 0x1E;
     8a4:	e3a0101e 	mov	r1, #30
     8a8:	ea000020 	b	930 <PS2_ISR+0x188>
				//color = 'G';
				keyPressed = '2';
				color_select =  GREEN;
				//printf("2 pressed\n");
			} else if(data == 0x26) {
     8ac:	e3530026 	cmp	r3, #38	; 0x26
     8b0:	1a000007 	bne	8d4 <PS2_ISR+0x12c>
				LED = 0x26;
				//color = 'B';
				keyPressed = '3';
     8b4:	e30f3314 	movw	r3, #62228	; 0xf314
     8b8:	e3403001 	movt	r3, #1
     8bc:	e3a02033 	mov	r2, #51	; 0x33
     8c0:	e5c32022 	strb	r2, [r3, #34]	; 0x22
				color_select = BLUE;
     8c4:	e3a02003 	mov	r2, #3
     8c8:	e5832024 	str	r2, [r3, #36]	; 0x24
				//color = 'G';
				keyPressed = '2';
				color_select =  GREEN;
				//printf("2 pressed\n");
			} else if(data == 0x26) {
				LED = 0x26;
     8cc:	e3a01026 	mov	r1, #38	; 0x26
     8d0:	ea000016 	b	930 <PS2_ISR+0x188>
				//color = 'B';
				keyPressed = '3';
				color_select = BLUE;
				//printf("3 pressed\n");
			} else if(data == 0x25) {
     8d4:	e3530025 	cmp	r3, #37	; 0x25
     8d8:	1a000007 	bne	8fc <PS2_ISR+0x154>
				LED = 0x25;
				//color = 'Y';
				keyPressed = '4';
     8dc:	e30f3314 	movw	r3, #62228	; 0xf314
     8e0:	e3403001 	movt	r3, #1
     8e4:	e3a02034 	mov	r2, #52	; 0x34
     8e8:	e5c32022 	strb	r2, [r3, #34]	; 0x22
				color_select = YELLOW;
     8ec:	e3a02004 	mov	r2, #4
     8f0:	e5832024 	str	r2, [r3, #36]	; 0x24
				//color = 'B';
				keyPressed = '3';
				color_select = BLUE;
				//printf("3 pressed\n");
			} else if(data == 0x25) {
				LED = 0x25;
     8f4:	e3a01025 	mov	r1, #37	; 0x25
     8f8:	ea00000c 	b	930 <PS2_ISR+0x188>
				//color = 'Y';
				keyPressed = '4';
				color_select = YELLOW;
				//printf("4 pressed\n");
			} else if(data == 0x2E) {
     8fc:	e353002e 	cmp	r3, #46	; 0x2e
				LED = 0x2E;
				//color = 'O';
				keyPressed = '5';
     900:	e30f3314 	movw	r3, #62228	; 0xf314
     904:	e3403001 	movt	r3, #1
     908:	03a02035 	moveq	r2, #53	; 0x35
     90c:	05c32022 	strbeq	r2, [r3, #34]	; 0x22
				color_select = ORANGE;
     910:	03a02005 	moveq	r2, #5
     914:	05832024 	streq	r2, [r3, #36]	; 0x24
				//color = 'Y';
				keyPressed = '4';
				color_select = YELLOW;
				//printf("4 pressed\n");
			} else if(data == 0x2E) {
				LED = 0x2E;
     918:	03a0102e 	moveq	r1, #46	; 0x2e

			//error handling
			} else {
				LED = 0xFFFF;
				//printf("unknown key pressed\n");
				keyPressed = '?';
     91c:	13a0203f 	movne	r2, #63	; 0x3f
     920:	15c32022 	strbne	r2, [r3, #34]	; 0x22
				//color = 'B';
				color_select = 10;
     924:	13a0200a 	movne	r2, #10
     928:	15832024 	strne	r2, [r3, #36]	; 0x24
				color_select = ORANGE;
				//printf("5 pressed\n");

			//error handling
			} else {
				LED = 0xFFFF;
     92c:	130f1fff 	movwne	r1, #65535	; 0xffff

	}

	//printf("data: %c\n", data);
	//printf("%c key pressed\n", keyPressed);
	*RLEDs = LED; //display the hex code on the LEDs
     930:	e3a03000 	mov	r3, #0
     934:	e34f3f20 	movt	r3, #65312	; 0xff20
     938:	e5831000 	str	r1, [r3]
     93c:	e12fff1e 	bx	lr

00000940 <__cs3_reset>:
	// Write to the End of Interrupt Register (ICCEOIR)
	*((int *) 0xFFFEC110) = interrupt_ID;
}

// Define the remaining exception handlers
void __attribute__ ((interrupt)) __cs3_reset () {
     940:	eafffffe 	b	940 <__cs3_reset>

00000944 <__cs3_isr_undef>:
	while(1);
}

void __attribute__ ((interrupt)) __cs3_isr_undef () {
     944:	eafffffe 	b	944 <__cs3_isr_undef>

00000948 <__cs3_isr_swi>:
	while(1);
}

void __attribute__ ((interrupt)) __cs3_isr_swi () {
     948:	eafffffe 	b	948 <__cs3_isr_swi>

0000094c <__cs3_isr_pabort>:
	while(1);
}

void __attribute__ ((interrupt)) __cs3_isr_pabort () {
     94c:	eafffffe 	b	94c <__cs3_isr_pabort>

00000950 <__cs3_isr_dabort>:
	while(1);
}

void __attribute__ ((interrupt)) __cs3_isr_dabort () {
     950:	eafffffe 	b	950 <__cs3_isr_dabort>

00000954 <__cs3_isr_fiq>:
	while(1);
}

void __attribute__ ((interrupt)) __cs3_isr_fiq () {
     954:	eafffffe 	b	954 <__cs3_isr_fiq>

00000958 <set_A9_IRQ_stack>:
	int stack, mode;
	stack = 0xFFFFFFFF - 7; // top of A9 onchip memory, aligned to 8 bytes

	/* change processor to IRQ mode with interrupts disabled */
	mode = 0b11010010;
	asm("msr cpsr, %[ps]" : : [ps] "r" (mode));
     958:	e3a030d2 	mov	r3, #210	; 0xd2
     95c:	e129f003 	msr	CPSR_fc, r3

	/* set banked stack pointer */
	asm("mov sp, %[ps]" : : [ps] "r" (stack));
     960:	e3e03007 	mvn	r3, #7
     964:	e1a0d003 	mov	sp, r3

	/* go back to SVC mode before executing subroutine return! */
	mode = 0b11010011;
	asm("msr cpsr, %[ps]" : : [ps] "r" (mode));
     968:	e3a030d3 	mov	r3, #211	; 0xd3
     96c:	e129f003 	msr	CPSR_fc, r3
     970:	e12fff1e 	bx	lr

00000974 <isLegalMove>:
	}*/

	//bool gameOver = false;

	//while(!gameOver) {
		if(color_select == RED) {
     974:	e3500001 	cmp	r0, #1
     978:	1a00006f 	bne	b3c <isLegalMove+0x1c8>
			if(keyPressed == 'W') {
     97c:	e3510057 	cmp	r1, #87	; 0x57
     980:	1a000019 	bne	9ec <isLegalMove+0x78>
				int tempY = redCurrentY - 1;
     984:	e30f3314 	movw	r3, #62228	; 0xf314
     988:	e3403001 	movt	r3, #1
     98c:	e5933028 	ldr	r3, [r3, #40]	; 0x28
     990:	e2433001 	sub	r3, r3, #1

				if(tempY < 0 || tempY > 4 || gameBoard[tempY][redCurrentX] != '0' || redPathFound) {
     994:	e3530004 	cmp	r3, #4
     998:	8a0002d1 	bhi	14e4 <isLegalMove+0xb70>
     99c:	e30f2314 	movw	r2, #62228	; 0xf314
     9a0:	e3402001 	movt	r2, #1
     9a4:	e592102c 	ldr	r1, [r2, #44]	; 0x2c
     9a8:	e0830103 	add	r0, r3, r3, lsl #2
     9ac:	e0800001 	add	r0, r0, r1
     9b0:	e7d22000 	ldrb	r2, [r2, r0]
     9b4:	e3520030 	cmp	r2, #48	; 0x30
     9b8:	1a0002cb 	bne	14ec <isLegalMove+0xb78>
     9bc:	e30f2314 	movw	r2, #62228	; 0xf314
     9c0:	e3402001 	movt	r2, #1
     9c4:	e5d22030 	ldrb	r2, [r2, #48]	; 0x30
     9c8:	e3520000 	cmp	r2, #0
     9cc:	1a0002c8 	bne	14f4 <isLegalMove+0xb80>
						redPathFound = true;
						redCurrentY = tempY;
						gameOver = redPathFound && greenPathFound && bluePathFound && yellowPathFound && orangePathFound;
						//don't want to change the array at [currentX][currentY]
					} else { //didn't reach the end, but is a valid move
						redCurrentY = tempY; //change Y accordingly
     9d0:	e30f2314 	movw	r2, #62228	; 0xf314
     9d4:	e3402001 	movt	r2, #1
     9d8:	e5823028 	str	r3, [r2, #40]	; 0x28
						gameBoard[redCurrentY][redCurrentX] = '1'; //mark position as occupied
     9dc:	e3a03031 	mov	r3, #49	; 0x31
     9e0:	e7c23000 	strb	r3, [r2, r0]
					}

					return true;
     9e4:	e3a00001 	mov	r0, #1
     9e8:	e12fff1e 	bx	lr
				}

			} else if(keyPressed == 'A') {
     9ec:	e3510041 	cmp	r1, #65	; 0x41
     9f0:	1a000019 	bne	a5c <isLegalMove+0xe8>
				int tempX = redCurrentX - 1;
     9f4:	e30f3314 	movw	r3, #62228	; 0xf314
     9f8:	e3403001 	movt	r3, #1
     9fc:	e593202c 	ldr	r2, [r3, #44]	; 0x2c
     a00:	e2422001 	sub	r2, r2, #1

				//out of bounds, trying to move to an already occupied spot, or game over: don't change position
				if(tempX < 0 || tempX > 4 || gameBoard[redCurrentY][tempX] != '0' || redPathFound) {
     a04:	e3520004 	cmp	r2, #4
     a08:	8a0002bb 	bhi	14fc <isLegalMove+0xb88>
     a0c:	e30f3314 	movw	r3, #62228	; 0xf314
     a10:	e3403001 	movt	r3, #1
     a14:	e5931028 	ldr	r1, [r3, #40]	; 0x28
     a18:	e0810101 	add	r0, r1, r1, lsl #2
     a1c:	e0800002 	add	r0, r0, r2
     a20:	e7d33000 	ldrb	r3, [r3, r0]
     a24:	e3530030 	cmp	r3, #48	; 0x30
     a28:	1a0002b5 	bne	1504 <isLegalMove+0xb90>
     a2c:	e30f3314 	movw	r3, #62228	; 0xf314
     a30:	e3403001 	movt	r3, #1
     a34:	e5d33030 	ldrb	r3, [r3, #48]	; 0x30
     a38:	e3530000 	cmp	r3, #0
     a3c:	1a0002b2 	bne	150c <isLegalMove+0xb98>
						redPathFound = true;
						redCurrentX = tempX;
						gameOver = redPathFound && greenPathFound && bluePathFound && yellowPathFound && orangePathFound;
						//don't want to change the array at [currentX][currentY]
					} else { //didn't reach the end, but is a valid move
						redCurrentX = tempX; //change Y accordingly
     a40:	e30f3314 	movw	r3, #62228	; 0xf314
     a44:	e3403001 	movt	r3, #1
     a48:	e583202c 	str	r2, [r3, #44]	; 0x2c
						gameBoard[redCurrentY][redCurrentX] = '1'; //mark position as occupied
     a4c:	e3a01031 	mov	r1, #49	; 0x31
     a50:	e7c31000 	strb	r1, [r3, r0]
					}
					return true;
     a54:	e3a00001 	mov	r0, #1
     a58:	e12fff1e 	bx	lr
				}

			} else if(keyPressed == 'S') {
     a5c:	e3510053 	cmp	r1, #83	; 0x53
     a60:	1a000019 	bne	acc <isLegalMove+0x158>
				int tempY = redCurrentY + 1;
     a64:	e30f3314 	movw	r3, #62228	; 0xf314
     a68:	e3403001 	movt	r3, #1
     a6c:	e5933028 	ldr	r3, [r3, #40]	; 0x28
     a70:	e2833001 	add	r3, r3, #1

				//out of bounds, trying to move to an already occupied spot, or game over: don't change position
				if(tempY < 0 || tempY > 4 || gameBoard[tempY][redCurrentX] != '0' || redPathFound) {
     a74:	e3530004 	cmp	r3, #4
     a78:	8a0002a5 	bhi	1514 <isLegalMove+0xba0>
     a7c:	e30f2314 	movw	r2, #62228	; 0xf314
     a80:	e3402001 	movt	r2, #1
     a84:	e592102c 	ldr	r1, [r2, #44]	; 0x2c
     a88:	e0830103 	add	r0, r3, r3, lsl #2
     a8c:	e0800001 	add	r0, r0, r1
     a90:	e7d22000 	ldrb	r2, [r2, r0]
     a94:	e3520030 	cmp	r2, #48	; 0x30
     a98:	1a00029f 	bne	151c <isLegalMove+0xba8>
     a9c:	e30f2314 	movw	r2, #62228	; 0xf314
     aa0:	e3402001 	movt	r2, #1
     aa4:	e5d22030 	ldrb	r2, [r2, #48]	; 0x30
     aa8:	e3520000 	cmp	r2, #0
     aac:	1a00029c 	bne	1524 <isLegalMove+0xbb0>
						redPathFound = true;
						redCurrentY = tempY;
						gameOver = redPathFound && greenPathFound && bluePathFound && yellowPathFound && orangePathFound;
						//don't want to change the array at [currentX][currentY]
					} else { //didn't reach the end, but is a valid move
						redCurrentY = tempY; //change Y accordingly
     ab0:	e30f2314 	movw	r2, #62228	; 0xf314
     ab4:	e3402001 	movt	r2, #1
     ab8:	e5823028 	str	r3, [r2, #40]	; 0x28
						gameBoard[redCurrentY][redCurrentX] = '1'; //mark position as occupied
     abc:	e3a03031 	mov	r3, #49	; 0x31
     ac0:	e7c23000 	strb	r3, [r2, r0]

					}
					return true;
     ac4:	e3a00001 	mov	r0, #1
     ac8:	e12fff1e 	bx	lr
				}

			} else if(keyPressed == 'D') {
     acc:	e3510044 	cmp	r1, #68	; 0x44
     ad0:	1a000295 	bne	152c <isLegalMove+0xbb8>
				int tempX = redCurrentX + 1;
     ad4:	e30f3314 	movw	r3, #62228	; 0xf314
     ad8:	e3403001 	movt	r3, #1
     adc:	e593202c 	ldr	r2, [r3, #44]	; 0x2c
     ae0:	e2822001 	add	r2, r2, #1

				//out of bounds, trying to move to an already occupied spot, or game over: don't change position
				if(tempX < 0 || tempX > 4 || gameBoard[redCurrentY][tempX] != '0' || redPathFound) {
     ae4:	e3520004 	cmp	r2, #4
     ae8:	8a000291 	bhi	1534 <isLegalMove+0xbc0>
     aec:	e30f3314 	movw	r3, #62228	; 0xf314
     af0:	e3403001 	movt	r3, #1
     af4:	e5931028 	ldr	r1, [r3, #40]	; 0x28
     af8:	e0810101 	add	r0, r1, r1, lsl #2
     afc:	e0800002 	add	r0, r0, r2
     b00:	e7d33000 	ldrb	r3, [r3, r0]
     b04:	e3530030 	cmp	r3, #48	; 0x30
     b08:	1a00028b 	bne	153c <isLegalMove+0xbc8>
     b0c:	e30f3314 	movw	r3, #62228	; 0xf314
     b10:	e3403001 	movt	r3, #1
     b14:	e5d33030 	ldrb	r3, [r3, #48]	; 0x30
     b18:	e3530000 	cmp	r3, #0
     b1c:	1a000288 	bne	1544 <isLegalMove+0xbd0>
						redPathFound = true;
						redCurrentX = tempX;
						gameOver = redPathFound && greenPathFound && bluePathFound && yellowPathFound && orangePathFound;
						//don't want to change the array at [currentX][currentY]
					} else { //didn't reach the end, but is a valid move
						redCurrentX = tempX; //change Y accordingly
     b20:	e30f3314 	movw	r3, #62228	; 0xf314
     b24:	e3403001 	movt	r3, #1
     b28:	e583202c 	str	r2, [r3, #44]	; 0x2c
						gameBoard[redCurrentY][redCurrentX] = '1'; //mark position as occupied
     b2c:	e3a01031 	mov	r1, #49	; 0x31
     b30:	e7c31000 	strb	r1, [r3, r0]

					}
					return true;
     b34:	e3a00001 	mov	r0, #1
     b38:	e12fff1e 	bx	lr
				redCurrentX = redCurrentX;
				redCurrentY = redCurrentY;
				return false;
			}

		} else if(color_select == GREEN) {
     b3c:	e3500002 	cmp	r0, #2
     b40:	1a000077 	bne	d24 <isLegalMove+0x3b0>
			if(keyPressed == 'W') {
     b44:	e3510057 	cmp	r1, #87	; 0x57
     b48:	1a00001b 	bne	bbc <isLegalMove+0x248>
				int tempY = greenCurrentY - 1;
     b4c:	e30f3314 	movw	r3, #62228	; 0xf314
     b50:	e3403001 	movt	r3, #1
     b54:	e5933034 	ldr	r3, [r3, #52]	; 0x34
     b58:	e2433001 	sub	r3, r3, #1

				//out of bounds, trying to move to an already occupied spot, or game over: don't change position
				if(tempY < 0 || tempY > 4 || gameBoard[tempY][greenCurrentX] != '0' || greenPathFound) {
     b5c:	e3530004 	cmp	r3, #4
     b60:	8a000279 	bhi	154c <isLegalMove+0xbd8>
     b64:	e30e2e98 	movw	r2, #61080	; 0xee98
     b68:	e3402001 	movt	r2, #1
     b6c:	e5921000 	ldr	r1, [r2]
     b70:	e30f2314 	movw	r2, #62228	; 0xf314
     b74:	e3402001 	movt	r2, #1
     b78:	e0830103 	add	r0, r3, r3, lsl #2
     b7c:	e0800001 	add	r0, r0, r1
     b80:	e7d22000 	ldrb	r2, [r2, r0]
     b84:	e3520030 	cmp	r2, #48	; 0x30
     b88:	1a000271 	bne	1554 <isLegalMove+0xbe0>
     b8c:	e30f2314 	movw	r2, #62228	; 0xf314
     b90:	e3402001 	movt	r2, #1
     b94:	e5d22038 	ldrb	r2, [r2, #56]	; 0x38
     b98:	e3520000 	cmp	r2, #0
     b9c:	1a00026e 	bne	155c <isLegalMove+0xbe8>
						greenPathFound = true;
						greenCurrentY = tempY;
						gameOver = redPathFound && greenPathFound && bluePathFound && yellowPathFound && orangePathFound;
						//don't want to change the array at [currentX][currentY]
					} else { //didn't reach the end, but is a valid move
						greenCurrentY = tempY; //change Y accordingly
     ba0:	e30f2314 	movw	r2, #62228	; 0xf314
     ba4:	e3402001 	movt	r2, #1
     ba8:	e5823034 	str	r3, [r2, #52]	; 0x34
						gameBoard[greenCurrentY][greenCurrentX] = '1'; //mark position as occupied
     bac:	e3a03031 	mov	r3, #49	; 0x31
     bb0:	e7c23000 	strb	r3, [r2, r0]

					}
					return true;
     bb4:	e3a00001 	mov	r0, #1
     bb8:	e12fff1e 	bx	lr
				}

			} else if(keyPressed == 'A') {
     bbc:	e3510041 	cmp	r1, #65	; 0x41
     bc0:	1a00001b 	bne	c34 <isLegalMove+0x2c0>
				int tempX = greenCurrentX - 1;
     bc4:	e30e3e98 	movw	r3, #61080	; 0xee98
     bc8:	e3403001 	movt	r3, #1
     bcc:	e5932000 	ldr	r2, [r3]
     bd0:	e2422001 	sub	r2, r2, #1

				//out of bounds, trying to move to an already occupied spot, or game over: don't change position
				if(tempX < 0 || tempX > 4 || gameBoard[greenCurrentY][tempX] != '0' || greenPathFound) {
     bd4:	e3520004 	cmp	r2, #4
     bd8:	8a000261 	bhi	1564 <isLegalMove+0xbf0>
     bdc:	e30f3314 	movw	r3, #62228	; 0xf314
     be0:	e3403001 	movt	r3, #1
     be4:	e5931034 	ldr	r1, [r3, #52]	; 0x34
     be8:	e0810101 	add	r0, r1, r1, lsl #2
     bec:	e0800002 	add	r0, r0, r2
     bf0:	e7d33000 	ldrb	r3, [r3, r0]
     bf4:	e3530030 	cmp	r3, #48	; 0x30
     bf8:	1a00025b 	bne	156c <isLegalMove+0xbf8>
     bfc:	e30f3314 	movw	r3, #62228	; 0xf314
     c00:	e3403001 	movt	r3, #1
     c04:	e5d33038 	ldrb	r3, [r3, #56]	; 0x38
     c08:	e3530000 	cmp	r3, #0
     c0c:	1a000258 	bne	1574 <isLegalMove+0xc00>
						greenPathFound = true;
						greenCurrentX = tempX;
						gameOver = redPathFound && greenPathFound && bluePathFound && yellowPathFound && orangePathFound;
						//don't want to change the array at [currentX][currentY]
					} else { //didn't reach the end, but is a valid move
						greenCurrentX = tempX; //change Y accordingly
     c10:	e30e3e98 	movw	r3, #61080	; 0xee98
     c14:	e3403001 	movt	r3, #1
     c18:	e5832000 	str	r2, [r3]
						gameBoard[greenCurrentY][greenCurrentX] = '1'; //mark position as occupied
     c1c:	e30f3314 	movw	r3, #62228	; 0xf314
     c20:	e3403001 	movt	r3, #1
     c24:	e3a01031 	mov	r1, #49	; 0x31
     c28:	e7c31000 	strb	r1, [r3, r0]

					}
					return true;
     c2c:	e3a00001 	mov	r0, #1
     c30:	e12fff1e 	bx	lr
				}

			} else if(keyPressed == 'S') {
     c34:	e3510053 	cmp	r1, #83	; 0x53
     c38:	1a00001b 	bne	cac <isLegalMove+0x338>
				int tempY = greenCurrentY + 1;
     c3c:	e30f3314 	movw	r3, #62228	; 0xf314
     c40:	e3403001 	movt	r3, #1
     c44:	e5933034 	ldr	r3, [r3, #52]	; 0x34
     c48:	e2833001 	add	r3, r3, #1

				//out of bounds, trying to move to an already occupied spot, or game over: don't change position
				if(tempY < 0 || tempY > 4 || gameBoard[tempY][greenCurrentX] != '0' || greenPathFound) {
     c4c:	e3530004 	cmp	r3, #4
     c50:	8a000249 	bhi	157c <isLegalMove+0xc08>
     c54:	e30e2e98 	movw	r2, #61080	; 0xee98
     c58:	e3402001 	movt	r2, #1
     c5c:	e5921000 	ldr	r1, [r2]
     c60:	e30f2314 	movw	r2, #62228	; 0xf314
     c64:	e3402001 	movt	r2, #1
     c68:	e0830103 	add	r0, r3, r3, lsl #2
     c6c:	e0800001 	add	r0, r0, r1
     c70:	e7d22000 	ldrb	r2, [r2, r0]
     c74:	e3520030 	cmp	r2, #48	; 0x30
     c78:	1a000241 	bne	1584 <isLegalMove+0xc10>
     c7c:	e30f2314 	movw	r2, #62228	; 0xf314
     c80:	e3402001 	movt	r2, #1
     c84:	e5d22038 	ldrb	r2, [r2, #56]	; 0x38
     c88:	e3520000 	cmp	r2, #0
     c8c:	1a00023e 	bne	158c <isLegalMove+0xc18>
						greenPathFound = true;
						greenCurrentY = tempY;
						gameOver = redPathFound && greenPathFound && bluePathFound && yellowPathFound && orangePathFound;
						//don't want to change the array at [currentX][currentY]
					} else { //didn't reach the end, but is a valid move
						greenCurrentY = tempY; //change Y accordingly
     c90:	e30f2314 	movw	r2, #62228	; 0xf314
     c94:	e3402001 	movt	r2, #1
     c98:	e5823034 	str	r3, [r2, #52]	; 0x34
						gameBoard[greenCurrentY][greenCurrentX] = '1'; //mark position as occupied
     c9c:	e3a03031 	mov	r3, #49	; 0x31
     ca0:	e7c23000 	strb	r3, [r2, r0]

					}
					return true;
     ca4:	e3a00001 	mov	r0, #1
     ca8:	e12fff1e 	bx	lr
				}

			} else if(keyPressed == 'D') {
     cac:	e3510044 	cmp	r1, #68	; 0x44
     cb0:	1a000237 	bne	1594 <isLegalMove+0xc20>
				int tempX = greenCurrentX + 1;
     cb4:	e30e3e98 	movw	r3, #61080	; 0xee98
     cb8:	e3403001 	movt	r3, #1
     cbc:	e5932000 	ldr	r2, [r3]
     cc0:	e2822001 	add	r2, r2, #1

				//out of bounds, trying to move to an already occupied spot, or game over: don't change position
				if(tempX < 0 || tempX > 4 || gameBoard[greenCurrentY][tempX] != '0' || greenPathFound) {
     cc4:	e3520004 	cmp	r2, #4
     cc8:	8a000233 	bhi	159c <isLegalMove+0xc28>
     ccc:	e30f3314 	movw	r3, #62228	; 0xf314
     cd0:	e3403001 	movt	r3, #1
     cd4:	e5931034 	ldr	r1, [r3, #52]	; 0x34
     cd8:	e0810101 	add	r0, r1, r1, lsl #2
     cdc:	e0800002 	add	r0, r0, r2
     ce0:	e7d33000 	ldrb	r3, [r3, r0]
     ce4:	e3530030 	cmp	r3, #48	; 0x30
     ce8:	1a00022d 	bne	15a4 <isLegalMove+0xc30>
     cec:	e30f3314 	movw	r3, #62228	; 0xf314
     cf0:	e3403001 	movt	r3, #1
     cf4:	e5d33038 	ldrb	r3, [r3, #56]	; 0x38
     cf8:	e3530000 	cmp	r3, #0
     cfc:	1a00022a 	bne	15ac <isLegalMove+0xc38>
						greenPathFound = true;
						greenCurrentX = tempX;
						gameOver = redPathFound && greenPathFound && bluePathFound && yellowPathFound && orangePathFound;
						//don't want to change the array at [currentX][currentY]
					} else { //didn't reach the end, but is a valid move
						greenCurrentX = tempX; //change Y accordingly
     d00:	e30e3e98 	movw	r3, #61080	; 0xee98
     d04:	e3403001 	movt	r3, #1
     d08:	e5832000 	str	r2, [r3]
						gameBoard[greenCurrentY][greenCurrentX] = '1'; //mark position as occupied
     d0c:	e30f3314 	movw	r3, #62228	; 0xf314
     d10:	e3403001 	movt	r3, #1
     d14:	e3a01031 	mov	r1, #49	; 0x31
     d18:	e7c31000 	strb	r1, [r3, r0]

					}
					return true;
     d1c:	e3a00001 	mov	r0, #1
     d20:	e12fff1e 	bx	lr
				greenCurrentX = greenCurrentX;
				greenCurrentY = greenCurrentY;
				return false;
			}

		} else if(color_select == BLUE) {
     d24:	e3500003 	cmp	r0, #3
     d28:	1a0000a4 	bne	fc0 <isLegalMove+0x64c>

			if(keyPressed == 'W') {
     d2c:	e3510057 	cmp	r1, #87	; 0x57
     d30:	1a00001d 	bne	dac <isLegalMove+0x438>
				int tempY = blueCurrentY - 1;
     d34:	e30e3e98 	movw	r3, #61080	; 0xee98
     d38:	e3403001 	movt	r3, #1
     d3c:	e5933004 	ldr	r3, [r3, #4]
     d40:	e2433001 	sub	r3, r3, #1

				//out of bounds, trying to move to an already occupied spot, or game over: don't change position
				if(tempY < 0 || tempY > 4 || gameBoard[tempY][blueCurrentX] != '0' || bluePathFound) {
     d44:	e3530004 	cmp	r3, #4
     d48:	8a000219 	bhi	15b4 <isLegalMove+0xc40>
     d4c:	e30e2e98 	movw	r2, #61080	; 0xee98
     d50:	e3402001 	movt	r2, #1
     d54:	e5921008 	ldr	r1, [r2, #8]
     d58:	e30f2314 	movw	r2, #62228	; 0xf314
     d5c:	e3402001 	movt	r2, #1
     d60:	e0830103 	add	r0, r3, r3, lsl #2
     d64:	e0800001 	add	r0, r0, r1
     d68:	e7d22000 	ldrb	r2, [r2, r0]
     d6c:	e3520030 	cmp	r2, #48	; 0x30
     d70:	1a000211 	bne	15bc <isLegalMove+0xc48>
     d74:	e30f2314 	movw	r2, #62228	; 0xf314
     d78:	e3402001 	movt	r2, #1
     d7c:	e5d22039 	ldrb	r2, [r2, #57]	; 0x39
     d80:	e3520000 	cmp	r2, #0
     d84:	1a00020e 	bne	15c4 <isLegalMove+0xc50>
						bluePathFound = true;
						blueCurrentY = tempY;
						gameOver = redPathFound && greenPathFound && bluePathFound && yellowPathFound && orangePathFound;
						//don't want to change the array at [currentX][currentY]
					} else { //didn't reach the end, but is a valid move
						blueCurrentY = tempY; //change Y accordingly
     d88:	e30e2e98 	movw	r2, #61080	; 0xee98
     d8c:	e3402001 	movt	r2, #1
     d90:	e5823004 	str	r3, [r2, #4]
						gameBoard[blueCurrentY][blueCurrentX] = '1'; //mark position as occupied
     d94:	e30f2314 	movw	r2, #62228	; 0xf314
     d98:	e3402001 	movt	r2, #1
     d9c:	e3a03031 	mov	r3, #49	; 0x31
     da0:	e7c23000 	strb	r3, [r2, r0]

					}
					return true;
     da4:	e3a00001 	mov	r0, #1
     da8:	e12fff1e 	bx	lr
				}

			} else if(keyPressed == 'A') {
     dac:	e3510041 	cmp	r1, #65	; 0x41
     db0:	1a00001d 	bne	e2c <isLegalMove+0x4b8>
				int tempX = blueCurrentX - 1;
     db4:	e30e3e98 	movw	r3, #61080	; 0xee98
     db8:	e3403001 	movt	r3, #1
     dbc:	e5933008 	ldr	r3, [r3, #8]
     dc0:	e2433001 	sub	r3, r3, #1

				//out of bounds, trying to move to an already occupied spot, or game over: don't change position
				if(tempX < 0 || tempX > 4 || gameBoard[blueCurrentY][tempX] != '0' || bluePathFound) {
     dc4:	e3530004 	cmp	r3, #4
     dc8:	8a0001ff 	bhi	15cc <isLegalMove+0xc58>
     dcc:	e30e2e98 	movw	r2, #61080	; 0xee98
     dd0:	e3402001 	movt	r2, #1
     dd4:	e5921004 	ldr	r1, [r2, #4]
     dd8:	e30f2314 	movw	r2, #62228	; 0xf314
     ddc:	e3402001 	movt	r2, #1
     de0:	e0810101 	add	r0, r1, r1, lsl #2
     de4:	e0800003 	add	r0, r0, r3
     de8:	e7d22000 	ldrb	r2, [r2, r0]
     dec:	e3520030 	cmp	r2, #48	; 0x30
     df0:	1a0001f7 	bne	15d4 <isLegalMove+0xc60>
     df4:	e30f2314 	movw	r2, #62228	; 0xf314
     df8:	e3402001 	movt	r2, #1
     dfc:	e5d22039 	ldrb	r2, [r2, #57]	; 0x39
     e00:	e3520000 	cmp	r2, #0
     e04:	1a0001f4 	bne	15dc <isLegalMove+0xc68>
						bluePathFound = true;
						blueCurrentX = tempX;
						gameOver = redPathFound && greenPathFound && bluePathFound && yellowPathFound && orangePathFound;
						//don't want to change the array at [currentX][currentY]
					} else { //didn't reach the end, but is a valid move
						blueCurrentX = tempX; //change Y accordingly
     e08:	e30e2e98 	movw	r2, #61080	; 0xee98
     e0c:	e3402001 	movt	r2, #1
     e10:	e5823008 	str	r3, [r2, #8]
						gameBoard[blueCurrentY][blueCurrentX] = '1'; //mark position as occupied
     e14:	e30f2314 	movw	r2, #62228	; 0xf314
     e18:	e3402001 	movt	r2, #1
     e1c:	e3a01031 	mov	r1, #49	; 0x31
     e20:	e7c21000 	strb	r1, [r2, r0]

					}
					return true;
     e24:	e3a00001 	mov	r0, #1
     e28:	e12fff1e 	bx	lr
				}

			} else if(keyPressed == 'S') {
     e2c:	e3510053 	cmp	r1, #83	; 0x53
     e30:	1a00001d 	bne	eac <isLegalMove+0x538>
				int tempY = blueCurrentY + 1;
     e34:	e30e3e98 	movw	r3, #61080	; 0xee98
     e38:	e3403001 	movt	r3, #1
     e3c:	e5933004 	ldr	r3, [r3, #4]
     e40:	e2833001 	add	r3, r3, #1

				//out of bounds, trying to move to an already occupied spot, or game over: don't change position
				if(tempY < 0 || tempY > 4 || gameBoard[tempY][blueCurrentX] != '0' || bluePathFound) {
     e44:	e3530004 	cmp	r3, #4
     e48:	8a0001e5 	bhi	15e4 <isLegalMove+0xc70>
     e4c:	e30e2e98 	movw	r2, #61080	; 0xee98
     e50:	e3402001 	movt	r2, #1
     e54:	e5921008 	ldr	r1, [r2, #8]
     e58:	e30f2314 	movw	r2, #62228	; 0xf314
     e5c:	e3402001 	movt	r2, #1
     e60:	e0830103 	add	r0, r3, r3, lsl #2
     e64:	e0800001 	add	r0, r0, r1
     e68:	e7d22000 	ldrb	r2, [r2, r0]
     e6c:	e3520030 	cmp	r2, #48	; 0x30
     e70:	1a0001dd 	bne	15ec <isLegalMove+0xc78>
     e74:	e30f2314 	movw	r2, #62228	; 0xf314
     e78:	e3402001 	movt	r2, #1
     e7c:	e5d22039 	ldrb	r2, [r2, #57]	; 0x39
     e80:	e3520000 	cmp	r2, #0
     e84:	1a0001da 	bne	15f4 <isLegalMove+0xc80>
						bluePathFound = true;
						blueCurrentY = tempY;
						gameOver = redPathFound && greenPathFound && bluePathFound && yellowPathFound && orangePathFound;
						//don't want to change the array at [currentX][currentY]
					} else { //didn't reach the end, but is a valid move
						blueCurrentY = tempY; //change Y accordingly
     e88:	e30e2e98 	movw	r2, #61080	; 0xee98
     e8c:	e3402001 	movt	r2, #1
     e90:	e5823004 	str	r3, [r2, #4]
						gameBoard[blueCurrentY][blueCurrentX] = '1'; //mark position as occupied
     e94:	e30f2314 	movw	r2, #62228	; 0xf314
     e98:	e3402001 	movt	r2, #1
     e9c:	e3a03031 	mov	r3, #49	; 0x31
     ea0:	e7c23000 	strb	r3, [r2, r0]

					}
					return true;
     ea4:	e3a00001 	mov	r0, #1
     ea8:	e12fff1e 	bx	lr
				}

			} else if(keyPressed == 'D') {
     eac:	e3510044 	cmp	r1, #68	; 0x44
     eb0:	1a0001d1 	bne	15fc <isLegalMove+0xc88>
				int tempX = blueCurrentX + 1;
     eb4:	e30e3e98 	movw	r3, #61080	; 0xee98
     eb8:	e3403001 	movt	r3, #1
     ebc:	e5931008 	ldr	r1, [r3, #8]
     ec0:	e2813001 	add	r3, r1, #1

				//out of bounds, trying to move to an already occupied spot, or game over: don't change position
				if(tempX < 0 || tempX > 4 || gameBoard[blueCurrentY][tempX] != '0' || bluePathFound) {
     ec4:	e3530004 	cmp	r3, #4
     ec8:	8a0001cd 	bhi	1604 <isLegalMove+0xc90>
     ecc:	e30e2e98 	movw	r2, #61080	; 0xee98
     ed0:	e3402001 	movt	r2, #1
     ed4:	e5920004 	ldr	r0, [r2, #4]
     ed8:	e30f2314 	movw	r2, #62228	; 0xf314
     edc:	e3402001 	movt	r2, #1
     ee0:	e080c100 	add	r12, r0, r0, lsl #2
     ee4:	e08cc003 	add	r12, r12, r3
     ee8:	e7d2200c 	ldrb	r2, [r2, r12]
     eec:	e3520030 	cmp	r2, #48	; 0x30
     ef0:	1a0001c5 	bne	160c <isLegalMove+0xc98>
     ef4:	e30f2314 	movw	r2, #62228	; 0xf314
     ef8:	e3402001 	movt	r2, #1
     efc:	e5d22039 	ldrb	r2, [r2, #57]	; 0x39
     f00:	e3520000 	cmp	r2, #0
     f04:	1a0001c2 	bne	1614 <isLegalMove+0xca0>
					blueCurrentX = blueCurrentX;
					return false;
				} else {
					if(gameBoard[tempX][blueCurrentX] == 'B') { //reached the end
     f08:	e30f2314 	movw	r2, #62228	; 0xf314
     f0c:	e3402001 	movt	r2, #1
     f10:	e083c103 	add	r12, r3, r3, lsl #2
     f14:	e08c1001 	add	r1, r12, r1
     f18:	e7d22001 	ldrb	r2, [r2, r1]
     f1c:	e3520042 	cmp	r2, #66	; 0x42
     f20:	1a00001b 	bne	f94 <isLegalMove+0x620>
						bluePathFound = true;
     f24:	e30f2314 	movw	r2, #62228	; 0xf314
     f28:	e3402001 	movt	r2, #1
     f2c:	e3a01001 	mov	r1, #1
     f30:	e5c21039 	strb	r1, [r2, #57]	; 0x39
						blueCurrentX = tempX;
     f34:	e30e1e98 	movw	r1, #61080	; 0xee98
     f38:	e3401001 	movt	r1, #1
     f3c:	e5813008 	str	r3, [r1, #8]
						gameOver = redPathFound && greenPathFound && bluePathFound && yellowPathFound && orangePathFound;
     f40:	e5d23030 	ldrb	r3, [r2, #48]	; 0x30
     f44:	e3530000 	cmp	r3, #0
     f48:	03a03000 	moveq	r3, #0
     f4c:	0a00000a 	beq	f7c <isLegalMove+0x608>
     f50:	e5d23038 	ldrb	r3, [r2, #56]	; 0x38
     f54:	e3530000 	cmp	r3, #0
     f58:	03a03000 	moveq	r3, #0
     f5c:	0a000006 	beq	f7c <isLegalMove+0x608>
     f60:	e5d2303a 	ldrb	r3, [r2, #58]	; 0x3a
     f64:	e3530000 	cmp	r3, #0
     f68:	11a03002 	movne	r3, r2
     f6c:	15d3303b 	ldrbne	r3, [r3, #59]	; 0x3b
     f70:	1a000001 	bne	f7c <isLegalMove+0x608>
     f74:	eaffffff 	b	f78 <isLegalMove+0x604>
     f78:	e3a03000 	mov	r3, #0
     f7c:	e30f2314 	movw	r2, #62228	; 0xf314
     f80:	e3402001 	movt	r2, #1
     f84:	e2033001 	and	r3, r3, #1
     f88:	e5c2303c 	strb	r3, [r2, #60]	; 0x3c
					} else { //didn't reach the end, but is a valid move
						blueCurrentX = tempX; //change Y accordingly
						gameBoard[blueCurrentY][blueCurrentX] = '1'; //mark position as occupied

					}
					return true;
     f8c:	e3a00001 	mov	r0, #1
     f90:	e12fff1e 	bx	lr
						bluePathFound = true;
						blueCurrentX = tempX;
						gameOver = redPathFound && greenPathFound && bluePathFound && yellowPathFound && orangePathFound;
						//don't want to change the array at [currentX][currentY]
					} else { //didn't reach the end, but is a valid move
						blueCurrentX = tempX; //change Y accordingly
     f94:	e30e2e98 	movw	r2, #61080	; 0xee98
     f98:	e3402001 	movt	r2, #1
     f9c:	e5823008 	str	r3, [r2, #8]
						gameBoard[blueCurrentY][blueCurrentX] = '1'; //mark position as occupied
     fa0:	e30f2314 	movw	r2, #62228	; 0xf314
     fa4:	e3402001 	movt	r2, #1
     fa8:	e0800100 	add	r0, r0, r0, lsl #2
     fac:	e0803003 	add	r3, r0, r3
     fb0:	e3a01031 	mov	r1, #49	; 0x31
     fb4:	e7c21003 	strb	r1, [r2, r3]

					}
					return true;
     fb8:	e3a00001 	mov	r0, #1
     fbc:	e12fff1e 	bx	lr
				blueCurrentX = blueCurrentX;
				blueCurrentY = blueCurrentY;
				return false;
			}

		} else if(color_select == YELLOW) {
     fc0:	e3500004 	cmp	r0, #4
     fc4:	1a00009f 	bne	1248 <isLegalMove+0x8d4>

			if(keyPressed == 'W') {
     fc8:	e3510057 	cmp	r1, #87	; 0x57
     fcc:	1a00001b 	bne	1040 <isLegalMove+0x6cc>
				int tempY = yellowCurrentY - 1;
     fd0:	e30f3314 	movw	r3, #62228	; 0xf314
     fd4:	e3403001 	movt	r3, #1
     fd8:	e5933040 	ldr	r3, [r3, #64]	; 0x40
     fdc:	e2433001 	sub	r3, r3, #1

				//out of bounds, trying to move to an already occupied spot, or game over: don't change position
				if(tempY < 0 || tempY > 4 || gameBoard[tempY][yellowCurrentX] != '0' || yellowPathFound) {
     fe0:	e3530004 	cmp	r3, #4
     fe4:	8a00018c 	bhi	161c <isLegalMove+0xca8>
     fe8:	e30e2e98 	movw	r2, #61080	; 0xee98
     fec:	e3402001 	movt	r2, #1
     ff0:	e592100c 	ldr	r1, [r2, #12]
     ff4:	e30f2314 	movw	r2, #62228	; 0xf314
     ff8:	e3402001 	movt	r2, #1
     ffc:	e0830103 	add	r0, r3, r3, lsl #2
    1000:	e0800001 	add	r0, r0, r1
    1004:	e7d22000 	ldrb	r2, [r2, r0]
    1008:	e3520030 	cmp	r2, #48	; 0x30
    100c:	1a000184 	bne	1624 <isLegalMove+0xcb0>
    1010:	e30f2314 	movw	r2, #62228	; 0xf314
    1014:	e3402001 	movt	r2, #1
    1018:	e5d2203a 	ldrb	r2, [r2, #58]	; 0x3a
    101c:	e3520000 	cmp	r2, #0
    1020:	1a000181 	bne	162c <isLegalMove+0xcb8>
						yellowPathFound = true;
						yellowCurrentY = tempY;
						gameOver = redPathFound && greenPathFound && bluePathFound && yellowPathFound && orangePathFound;
						//don't want to change the array at [currentX][currentY]
					} else { //didn't reach the end, but is a valid move
						yellowCurrentY = tempY; //change Y accordingly
    1024:	e30f2314 	movw	r2, #62228	; 0xf314
    1028:	e3402001 	movt	r2, #1
    102c:	e5823040 	str	r3, [r2, #64]	; 0x40
						gameBoard[yellowCurrentY][yellowCurrentX] = '1'; //mark position as occupied
    1030:	e3a03031 	mov	r3, #49	; 0x31
    1034:	e7c23000 	strb	r3, [r2, r0]

					}
					return true;
    1038:	e3a00001 	mov	r0, #1
    103c:	e12fff1e 	bx	lr
				}

			} else if(keyPressed == 'A') {
    1040:	e3510041 	cmp	r1, #65	; 0x41
    1044:	1a00001b 	bne	10b8 <isLegalMove+0x744>
				int tempX = yellowCurrentX - 1;
    1048:	e30e3e98 	movw	r3, #61080	; 0xee98
    104c:	e3403001 	movt	r3, #1
    1050:	e593200c 	ldr	r2, [r3, #12]
    1054:	e2422001 	sub	r2, r2, #1

				//out of bounds, trying to move to an already occupied spot, or game over: don't change position
				if(tempX < 0 || tempX > 4 || gameBoard[yellowCurrentY][tempX] != '0' || yellowPathFound) {
    1058:	e3520004 	cmp	r2, #4
    105c:	8a000174 	bhi	1634 <isLegalMove+0xcc0>
    1060:	e30f3314 	movw	r3, #62228	; 0xf314
    1064:	e3403001 	movt	r3, #1
    1068:	e5931040 	ldr	r1, [r3, #64]	; 0x40
    106c:	e0810101 	add	r0, r1, r1, lsl #2
    1070:	e0800002 	add	r0, r0, r2
    1074:	e7d33000 	ldrb	r3, [r3, r0]
    1078:	e3530030 	cmp	r3, #48	; 0x30
    107c:	1a00016e 	bne	163c <isLegalMove+0xcc8>
    1080:	e30f3314 	movw	r3, #62228	; 0xf314
    1084:	e3403001 	movt	r3, #1
    1088:	e5d3303a 	ldrb	r3, [r3, #58]	; 0x3a
    108c:	e3530000 	cmp	r3, #0
    1090:	1a00016b 	bne	1644 <isLegalMove+0xcd0>
						yellowPathFound = true;
						yellowCurrentX = tempX;
						gameOver = redPathFound && greenPathFound && bluePathFound && yellowPathFound && orangePathFound;
						//don't want to change the array at [currentX][currentY]
					} else { //didn't reach the end, but is a valid move
						yellowCurrentX = tempX; //change Y accordingly
    1094:	e30e3e98 	movw	r3, #61080	; 0xee98
    1098:	e3403001 	movt	r3, #1
    109c:	e583200c 	str	r2, [r3, #12]
						gameBoard[yellowCurrentY][yellowCurrentX] = '1'; //mark position as occupied
    10a0:	e30f3314 	movw	r3, #62228	; 0xf314
    10a4:	e3403001 	movt	r3, #1
    10a8:	e3a01031 	mov	r1, #49	; 0x31
    10ac:	e7c31000 	strb	r1, [r3, r0]

					}
					return true;
    10b0:	e3a00001 	mov	r0, #1
    10b4:	e12fff1e 	bx	lr
				}

			} else if(keyPressed == 'S') {
    10b8:	e3510053 	cmp	r1, #83	; 0x53
    10bc:	1a00001b 	bne	1130 <isLegalMove+0x7bc>
				int tempY = yellowCurrentY + 1;
    10c0:	e30f3314 	movw	r3, #62228	; 0xf314
    10c4:	e3403001 	movt	r3, #1
    10c8:	e5933040 	ldr	r3, [r3, #64]	; 0x40
    10cc:	e2833001 	add	r3, r3, #1

				//out of bounds, trying to move to an already occupied spot, or game over: don't change position
				if(tempY < 0 || tempY > 4 || gameBoard[tempY][yellowCurrentX] != '0' || yellowPathFound) {
    10d0:	e3530004 	cmp	r3, #4
    10d4:	8a00015c 	bhi	164c <isLegalMove+0xcd8>
    10d8:	e30e2e98 	movw	r2, #61080	; 0xee98
    10dc:	e3402001 	movt	r2, #1
    10e0:	e592100c 	ldr	r1, [r2, #12]
    10e4:	e30f2314 	movw	r2, #62228	; 0xf314
    10e8:	e3402001 	movt	r2, #1
    10ec:	e0830103 	add	r0, r3, r3, lsl #2
    10f0:	e0800001 	add	r0, r0, r1
    10f4:	e7d22000 	ldrb	r2, [r2, r0]
    10f8:	e3520030 	cmp	r2, #48	; 0x30
    10fc:	1a000154 	bne	1654 <isLegalMove+0xce0>
    1100:	e30f2314 	movw	r2, #62228	; 0xf314
    1104:	e3402001 	movt	r2, #1
    1108:	e5d2203a 	ldrb	r2, [r2, #58]	; 0x3a
    110c:	e3520000 	cmp	r2, #0
    1110:	1a000151 	bne	165c <isLegalMove+0xce8>
						yellowPathFound = true;
						yellowCurrentY = tempY;
						gameOver = redPathFound && greenPathFound && bluePathFound && yellowPathFound && orangePathFound;
						//don't want to change the array at [currentX][currentY]
					} else { //didn't reach the end, but is a valid move
						yellowCurrentY = tempY; //change Y accordingly
    1114:	e30f2314 	movw	r2, #62228	; 0xf314
    1118:	e3402001 	movt	r2, #1
    111c:	e5823040 	str	r3, [r2, #64]	; 0x40
						gameBoard[yellowCurrentY][yellowCurrentX] = '1'; //mark position as occupied
    1120:	e3a03031 	mov	r3, #49	; 0x31
    1124:	e7c23000 	strb	r3, [r2, r0]

					}
					return true;
    1128:	e3a00001 	mov	r0, #1
    112c:	e12fff1e 	bx	lr
				}

			} else if(keyPressed == 'D') {
    1130:	e3510044 	cmp	r1, #68	; 0x44
    1134:	1a00014a 	bne	1664 <isLegalMove+0xcf0>
				int tempX = yellowCurrentX + 1;
    1138:	e30e3e98 	movw	r3, #61080	; 0xee98
    113c:	e3403001 	movt	r3, #1
    1140:	e593100c 	ldr	r1, [r3, #12]
    1144:	e2812001 	add	r2, r1, #1

				//out of bounds, trying to move to an already occupied spot, or game over: don't change position
				if(tempX < 0 || tempX > 4 || gameBoard[yellowCurrentY][tempX] != '0' || yellowPathFound) {
    1148:	e3520004 	cmp	r2, #4
    114c:	8a000146 	bhi	166c <isLegalMove+0xcf8>
    1150:	e30f3314 	movw	r3, #62228	; 0xf314
    1154:	e3403001 	movt	r3, #1
    1158:	e5930040 	ldr	r0, [r3, #64]	; 0x40
    115c:	e080c100 	add	r12, r0, r0, lsl #2
    1160:	e08cc002 	add	r12, r12, r2
    1164:	e7d3300c 	ldrb	r3, [r3, r12]
    1168:	e3530030 	cmp	r3, #48	; 0x30
    116c:	1a000140 	bne	1674 <isLegalMove+0xd00>
    1170:	e30f3314 	movw	r3, #62228	; 0xf314
    1174:	e3403001 	movt	r3, #1
    1178:	e5d3303a 	ldrb	r3, [r3, #58]	; 0x3a
    117c:	e3530000 	cmp	r3, #0
    1180:	1a00013d 	bne	167c <isLegalMove+0xd08>
					yellowCurrentX = yellowCurrentX;
					return false;
				} else {
					if(gameBoard[tempX][yellowCurrentX] == 'Y') { //reached the end
    1184:	e30f3314 	movw	r3, #62228	; 0xf314
    1188:	e3403001 	movt	r3, #1
    118c:	e082c102 	add	r12, r2, r2, lsl #2
    1190:	e08c1001 	add	r1, r12, r1
    1194:	e7d33001 	ldrb	r3, [r3, r1]
    1198:	e3530059 	cmp	r3, #89	; 0x59
    119c:	1a00001e 	bne	121c <isLegalMove+0x8a8>
						yellowPathFound = true;
    11a0:	e30f3314 	movw	r3, #62228	; 0xf314
    11a4:	e3403001 	movt	r3, #1
    11a8:	e3a01001 	mov	r1, #1
    11ac:	e5c3103a 	strb	r1, [r3, #58]	; 0x3a
						yellowCurrentX = tempX;
    11b0:	e30e1e98 	movw	r1, #61080	; 0xee98
    11b4:	e3401001 	movt	r1, #1
    11b8:	e581200c 	str	r2, [r1, #12]
						gameOver = redPathFound && greenPathFound && bluePathFound && yellowPathFound && orangePathFound;
    11bc:	e5d33030 	ldrb	r3, [r3, #48]	; 0x30
    11c0:	e3530000 	cmp	r3, #0
    11c4:	03a03000 	moveq	r3, #0
    11c8:	0a00000d 	beq	1204 <isLegalMove+0x890>
    11cc:	e30f3314 	movw	r3, #62228	; 0xf314
    11d0:	e3403001 	movt	r3, #1
    11d4:	e5d33038 	ldrb	r3, [r3, #56]	; 0x38
    11d8:	e3530000 	cmp	r3, #0
    11dc:	03a03000 	moveq	r3, #0
    11e0:	0a000007 	beq	1204 <isLegalMove+0x890>
    11e4:	e30f3314 	movw	r3, #62228	; 0xf314
    11e8:	e3403001 	movt	r3, #1
    11ec:	e5d33039 	ldrb	r3, [r3, #57]	; 0x39
    11f0:	e3530000 	cmp	r3, #0
    11f4:	03a03000 	moveq	r3, #0
    11f8:	130f3314 	movwne	r3, #62228	; 0xf314
    11fc:	13403001 	movtne	r3, #1
    1200:	15d3303b 	ldrbne	r3, [r3, #59]	; 0x3b
    1204:	e30f2314 	movw	r2, #62228	; 0xf314
    1208:	e3402001 	movt	r2, #1
    120c:	e2033001 	and	r3, r3, #1
    1210:	e5c2303c 	strb	r3, [r2, #60]	; 0x3c
					} else { //didn't reach the end, but is a valid move
						yellowCurrentX = tempX; //change Y accordingly
						gameBoard[yellowCurrentY][yellowCurrentX] = '1'; //mark position as occupied

					}
					return true;
    1214:	e3a00001 	mov	r0, #1
    1218:	e12fff1e 	bx	lr
						yellowPathFound = true;
						yellowCurrentX = tempX;
						gameOver = redPathFound && greenPathFound && bluePathFound && yellowPathFound && orangePathFound;
						//don't want to change the array at [currentX][currentY]
					} else { //didn't reach the end, but is a valid move
						yellowCurrentX = tempX; //change Y accordingly
    121c:	e30e3e98 	movw	r3, #61080	; 0xee98
    1220:	e3403001 	movt	r3, #1
    1224:	e583200c 	str	r2, [r3, #12]
						gameBoard[yellowCurrentY][yellowCurrentX] = '1'; //mark position as occupied
    1228:	e30f3314 	movw	r3, #62228	; 0xf314
    122c:	e3403001 	movt	r3, #1
    1230:	e0800100 	add	r0, r0, r0, lsl #2
    1234:	e0802002 	add	r2, r0, r2
    1238:	e3a01031 	mov	r1, #49	; 0x31
    123c:	e7c31002 	strb	r1, [r3, r2]

					}
					return true;
    1240:	e3a00001 	mov	r0, #1
    1244:	e12fff1e 	bx	lr
				yellowCurrentX = yellowCurrentX;
				yellowCurrentY = yellowCurrentY;
				return false;
			}

		} else if(color_select == ORANGE) {
    1248:	e3500005 	cmp	r0, #5
    124c:	1a00010c 	bne	1684 <isLegalMove+0xd10>

			if(keyPressed == 'W') {
    1250:	e3510057 	cmp	r1, #87	; 0x57
    1254:	1a00001d 	bne	12d0 <isLegalMove+0x95c>
				int tempY = orangeCurrentY - 1;
    1258:	e30e3e98 	movw	r3, #61080	; 0xee98
    125c:	e3403001 	movt	r3, #1
    1260:	e5933010 	ldr	r3, [r3, #16]
    1264:	e2433001 	sub	r3, r3, #1

				//out of bounds, trying to move to an already occupied spot, or game over: don't change position
				if(tempY < 0 || tempY > 4 || gameBoard[tempY][orangeCurrentX] != '0' || orangePathFound) {
    1268:	e3530004 	cmp	r3, #4
    126c:	8a000106 	bhi	168c <isLegalMove+0xd18>
    1270:	e30e2e98 	movw	r2, #61080	; 0xee98
    1274:	e3402001 	movt	r2, #1
    1278:	e5921014 	ldr	r1, [r2, #20]
    127c:	e30f2314 	movw	r2, #62228	; 0xf314
    1280:	e3402001 	movt	r2, #1
    1284:	e0830103 	add	r0, r3, r3, lsl #2
    1288:	e0800001 	add	r0, r0, r1
    128c:	e7d22000 	ldrb	r2, [r2, r0]
    1290:	e3520030 	cmp	r2, #48	; 0x30
    1294:	1a0000fe 	bne	1694 <isLegalMove+0xd20>
    1298:	e30f2314 	movw	r2, #62228	; 0xf314
    129c:	e3402001 	movt	r2, #1
    12a0:	e5d2203b 	ldrb	r2, [r2, #59]	; 0x3b
    12a4:	e3520000 	cmp	r2, #0
    12a8:	1a0000fb 	bne	169c <isLegalMove+0xd28>
						orangePathFound = true;
						orangeCurrentY = tempY;
						gameOver = redPathFound && greenPathFound && bluePathFound && yellowPathFound && orangePathFound;
						//don't want to change the array at [currentX][currentY]
					} else { //didn't reach the end, but is a valid move
						orangeCurrentY = tempY; //change Y accordingly
    12ac:	e30e2e98 	movw	r2, #61080	; 0xee98
    12b0:	e3402001 	movt	r2, #1
    12b4:	e5823010 	str	r3, [r2, #16]
						gameBoard[orangeCurrentY][orangeCurrentX] = '1'; //mark position as occupied
    12b8:	e30f2314 	movw	r2, #62228	; 0xf314
    12bc:	e3402001 	movt	r2, #1
    12c0:	e3a03031 	mov	r3, #49	; 0x31
    12c4:	e7c23000 	strb	r3, [r2, r0]

					}
					return true;
    12c8:	e3a00001 	mov	r0, #1
    12cc:	e12fff1e 	bx	lr
				}

			} else if(keyPressed == 'A') {
    12d0:	e3510041 	cmp	r1, #65	; 0x41
    12d4:	1a00001d 	bne	1350 <isLegalMove+0x9dc>
				int tempX = orangeCurrentX - 1;
    12d8:	e30e3e98 	movw	r3, #61080	; 0xee98
    12dc:	e3403001 	movt	r3, #1
    12e0:	e5933014 	ldr	r3, [r3, #20]
    12e4:	e2433001 	sub	r3, r3, #1

				//out of bounds, trying to move to an already occupied spot, or game over: don't change position
				if(tempX < 0 || tempX > 4 || gameBoard[orangeCurrentY][tempX] != '0' || orangePathFound) {
    12e8:	e3530004 	cmp	r3, #4
    12ec:	8a0000ec 	bhi	16a4 <isLegalMove+0xd30>
    12f0:	e30e2e98 	movw	r2, #61080	; 0xee98
    12f4:	e3402001 	movt	r2, #1
    12f8:	e5921010 	ldr	r1, [r2, #16]
    12fc:	e30f2314 	movw	r2, #62228	; 0xf314
    1300:	e3402001 	movt	r2, #1
    1304:	e0810101 	add	r0, r1, r1, lsl #2
    1308:	e0800003 	add	r0, r0, r3
    130c:	e7d22000 	ldrb	r2, [r2, r0]
    1310:	e3520030 	cmp	r2, #48	; 0x30
    1314:	1a0000e4 	bne	16ac <isLegalMove+0xd38>
    1318:	e30f2314 	movw	r2, #62228	; 0xf314
    131c:	e3402001 	movt	r2, #1
    1320:	e5d2203b 	ldrb	r2, [r2, #59]	; 0x3b
    1324:	e3520000 	cmp	r2, #0
    1328:	1a0000e1 	bne	16b4 <isLegalMove+0xd40>
						orangePathFound = true;
						orangeCurrentX = tempX;
						gameOver = redPathFound && greenPathFound && bluePathFound && yellowPathFound && orangePathFound;
						//don't want to change the array at [currentX][currentY]
					} else { //didn't reach the end, but is a valid move
						orangeCurrentX = tempX; //change Y accordingly
    132c:	e30e2e98 	movw	r2, #61080	; 0xee98
    1330:	e3402001 	movt	r2, #1
    1334:	e5823014 	str	r3, [r2, #20]
						gameBoard[orangeCurrentY][orangeCurrentX] = '1'; //mark position as occupied
    1338:	e30f2314 	movw	r2, #62228	; 0xf314
    133c:	e3402001 	movt	r2, #1
    1340:	e3a01031 	mov	r1, #49	; 0x31
    1344:	e7c21000 	strb	r1, [r2, r0]

					}
					return true;
    1348:	e3a00001 	mov	r0, #1
    134c:	e12fff1e 	bx	lr
				}

			} else if(keyPressed == 'S') {
    1350:	e3510053 	cmp	r1, #83	; 0x53
    1354:	1a00001d 	bne	13d0 <isLegalMove+0xa5c>
				int tempY = orangeCurrentY + 1;
    1358:	e30e3e98 	movw	r3, #61080	; 0xee98
    135c:	e3403001 	movt	r3, #1
    1360:	e5933010 	ldr	r3, [r3, #16]
    1364:	e2833001 	add	r3, r3, #1

				//out of bounds, trying to move to an already occupied spot, or game over: don't change position
				if(tempY < 0 || tempY > 4 || gameBoard[tempY][orangeCurrentX] != '0' || orangePathFound) {
    1368:	e3530004 	cmp	r3, #4
    136c:	8a0000d2 	bhi	16bc <isLegalMove+0xd48>
    1370:	e30e2e98 	movw	r2, #61080	; 0xee98
    1374:	e3402001 	movt	r2, #1
    1378:	e5921014 	ldr	r1, [r2, #20]
    137c:	e30f2314 	movw	r2, #62228	; 0xf314
    1380:	e3402001 	movt	r2, #1
    1384:	e0830103 	add	r0, r3, r3, lsl #2
    1388:	e0800001 	add	r0, r0, r1
    138c:	e7d22000 	ldrb	r2, [r2, r0]
    1390:	e3520030 	cmp	r2, #48	; 0x30
    1394:	1a0000ca 	bne	16c4 <isLegalMove+0xd50>
    1398:	e30f2314 	movw	r2, #62228	; 0xf314
    139c:	e3402001 	movt	r2, #1
    13a0:	e5d2203b 	ldrb	r2, [r2, #59]	; 0x3b
    13a4:	e3520000 	cmp	r2, #0
    13a8:	1a0000c7 	bne	16cc <isLegalMove+0xd58>
						orangePathFound = true;
						orangeCurrentY = tempY;
						gameOver = redPathFound && greenPathFound && bluePathFound && yellowPathFound && orangePathFound;
						//don't want to change the array at [currentX][currentY]
					} else { //didn't reach the end, but is a valid move
						orangeCurrentY = tempY; //change Y accordingly
    13ac:	e30e2e98 	movw	r2, #61080	; 0xee98
    13b0:	e3402001 	movt	r2, #1
    13b4:	e5823010 	str	r3, [r2, #16]
						gameBoard[orangeCurrentY][orangeCurrentX] = '1'; //mark position as occupied
    13b8:	e30f2314 	movw	r2, #62228	; 0xf314
    13bc:	e3402001 	movt	r2, #1
    13c0:	e3a03031 	mov	r3, #49	; 0x31
    13c4:	e7c23000 	strb	r3, [r2, r0]

					}
					return true;
    13c8:	e3a00001 	mov	r0, #1
    13cc:	e12fff1e 	bx	lr
				}

			} else if(keyPressed == 'D') {
    13d0:	e3510044 	cmp	r1, #68	; 0x44
    13d4:	1a0000be 	bne	16d4 <isLegalMove+0xd60>
				int tempX = orangeCurrentX + 1;
    13d8:	e30e3e98 	movw	r3, #61080	; 0xee98
    13dc:	e3403001 	movt	r3, #1
    13e0:	e5931014 	ldr	r1, [r3, #20]
    13e4:	e2813001 	add	r3, r1, #1

				//out of bounds, trying to move to an already occupied spot, or game over: don't change position
				if(tempX < 0 || tempX > 4 || gameBoard[orangeCurrentY][tempX] != '0' || orangePathFound) {
    13e8:	e3530004 	cmp	r3, #4
    13ec:	8a0000ba 	bhi	16dc <isLegalMove+0xd68>
    13f0:	e30e2e98 	movw	r2, #61080	; 0xee98
    13f4:	e3402001 	movt	r2, #1
    13f8:	e5920010 	ldr	r0, [r2, #16]
    13fc:	e30f2314 	movw	r2, #62228	; 0xf314
    1400:	e3402001 	movt	r2, #1
    1404:	e080c100 	add	r12, r0, r0, lsl #2
    1408:	e08cc003 	add	r12, r12, r3
    140c:	e7d2200c 	ldrb	r2, [r2, r12]
    1410:	e3520030 	cmp	r2, #48	; 0x30
    1414:	1a0000b2 	bne	16e4 <isLegalMove+0xd70>
    1418:	e30f2314 	movw	r2, #62228	; 0xf314
    141c:	e3402001 	movt	r2, #1
    1420:	e5d2203b 	ldrb	r2, [r2, #59]	; 0x3b
    1424:	e3520000 	cmp	r2, #0
    1428:	1a0000af 	bne	16ec <isLegalMove+0xd78>
					orangeCurrentX = orangeCurrentX;
					return false;
				} else {
					if(gameBoard[tempX][orangeCurrentX] == 'O') { //reached the end
    142c:	e30f2314 	movw	r2, #62228	; 0xf314
    1430:	e3402001 	movt	r2, #1
    1434:	e083c103 	add	r12, r3, r3, lsl #2
    1438:	e08c1001 	add	r1, r12, r1
    143c:	e7d22001 	ldrb	r2, [r2, r1]
    1440:	e352004f 	cmp	r2, #79	; 0x4f
    1444:	1a00001b 	bne	14b8 <isLegalMove+0xb44>
						orangePathFound = true;
    1448:	e30f2314 	movw	r2, #62228	; 0xf314
    144c:	e3402001 	movt	r2, #1
    1450:	e3a01001 	mov	r1, #1
    1454:	e5c2103b 	strb	r1, [r2, #59]	; 0x3b
						orangeCurrentX = tempX;
    1458:	e30e1e98 	movw	r1, #61080	; 0xee98
    145c:	e3401001 	movt	r1, #1
    1460:	e5813014 	str	r3, [r1, #20]
						gameOver = redPathFound && greenPathFound && bluePathFound && yellowPathFound && orangePathFound;
    1464:	e5d23030 	ldrb	r3, [r2, #48]	; 0x30
    1468:	e3530000 	cmp	r3, #0
    146c:	03a03000 	moveq	r3, #0
    1470:	0a00000a 	beq	14a0 <isLegalMove+0xb2c>
    1474:	e5d23038 	ldrb	r3, [r2, #56]	; 0x38
    1478:	e3530000 	cmp	r3, #0
    147c:	03a03000 	moveq	r3, #0
    1480:	0a000006 	beq	14a0 <isLegalMove+0xb2c>
    1484:	e5d23039 	ldrb	r3, [r2, #57]	; 0x39
    1488:	e3530000 	cmp	r3, #0
    148c:	11a03002 	movne	r3, r2
    1490:	15d3303a 	ldrbne	r3, [r3, #58]	; 0x3a
    1494:	1a000001 	bne	14a0 <isLegalMove+0xb2c>
    1498:	eaffffff 	b	149c <isLegalMove+0xb28>
    149c:	e3a03000 	mov	r3, #0
    14a0:	e30f2314 	movw	r2, #62228	; 0xf314
    14a4:	e3402001 	movt	r2, #1
    14a8:	e2033001 	and	r3, r3, #1
    14ac:	e5c2303c 	strb	r3, [r2, #60]	; 0x3c
					} else { //didn't reach the end, but is a valid move
						orangeCurrentX = tempX; //change Y accordingly
						gameBoard[orangeCurrentY][orangeCurrentX] = '1'; //mark position as occupied

					}
					return true;
    14b0:	e3a00001 	mov	r0, #1
    14b4:	e12fff1e 	bx	lr
						orangePathFound = true;
						orangeCurrentX = tempX;
						gameOver = redPathFound && greenPathFound && bluePathFound && yellowPathFound && orangePathFound;
						//don't want to change the array at [currentX][currentY]
					} else { //didn't reach the end, but is a valid move
						orangeCurrentX = tempX; //change Y accordingly
    14b8:	e30e2e98 	movw	r2, #61080	; 0xee98
    14bc:	e3402001 	movt	r2, #1
    14c0:	e5823014 	str	r3, [r2, #20]
						gameBoard[orangeCurrentY][orangeCurrentX] = '1'; //mark position as occupied
    14c4:	e30f2314 	movw	r2, #62228	; 0xf314
    14c8:	e3402001 	movt	r2, #1
    14cc:	e0800100 	add	r0, r0, r0, lsl #2
    14d0:	e0803003 	add	r3, r0, r3
    14d4:	e3a01031 	mov	r1, #49	; 0x31
    14d8:	e7c21003 	strb	r1, [r2, r3]

					}
					return true;
    14dc:	e3a00001 	mov	r0, #1
    14e0:	e12fff1e 	bx	lr
			if(keyPressed == 'W') {
				int tempY = redCurrentY - 1;

				if(tempY < 0 || tempY > 4 || gameBoard[tempY][redCurrentX] != '0' || redPathFound) {
					redCurrentY = redCurrentY;
					return false;
    14e4:	e3a00000 	mov	r0, #0
    14e8:	e12fff1e 	bx	lr
    14ec:	e3a00000 	mov	r0, #0
    14f0:	e12fff1e 	bx	lr
    14f4:	e3a00000 	mov	r0, #0
    14f8:	e12fff1e 	bx	lr
				int tempX = redCurrentX - 1;

				//out of bounds, trying to move to an already occupied spot, or game over: don't change position
				if(tempX < 0 || tempX > 4 || gameBoard[redCurrentY][tempX] != '0' || redPathFound) {
					redCurrentX = redCurrentX;
					return false;
    14fc:	e3a00000 	mov	r0, #0
    1500:	e12fff1e 	bx	lr
    1504:	e3a00000 	mov	r0, #0
    1508:	e12fff1e 	bx	lr
    150c:	e3a00000 	mov	r0, #0
    1510:	e12fff1e 	bx	lr
				int tempY = redCurrentY + 1;

				//out of bounds, trying to move to an already occupied spot, or game over: don't change position
				if(tempY < 0 || tempY > 4 || gameBoard[tempY][redCurrentX] != '0' || redPathFound) {
					redCurrentY = redCurrentY;
					return false;
    1514:	e3a00000 	mov	r0, #0
    1518:	e12fff1e 	bx	lr
    151c:	e3a00000 	mov	r0, #0
    1520:	e12fff1e 	bx	lr
    1524:	e3a00000 	mov	r0, #0
    1528:	e12fff1e 	bx	lr
				}

			} else {
				redCurrentX = redCurrentX;
				redCurrentY = redCurrentY;
				return false;
    152c:	e3a00000 	mov	r0, #0
    1530:	e12fff1e 	bx	lr
				int tempX = redCurrentX + 1;

				//out of bounds, trying to move to an already occupied spot, or game over: don't change position
				if(tempX < 0 || tempX > 4 || gameBoard[redCurrentY][tempX] != '0' || redPathFound) {
					redCurrentX = redCurrentX;
					return false;
    1534:	e3a00000 	mov	r0, #0
    1538:	e12fff1e 	bx	lr
    153c:	e3a00000 	mov	r0, #0
    1540:	e12fff1e 	bx	lr
    1544:	e3a00000 	mov	r0, #0
    1548:	e12fff1e 	bx	lr
				int tempY = greenCurrentY - 1;

				//out of bounds, trying to move to an already occupied spot, or game over: don't change position
				if(tempY < 0 || tempY > 4 || gameBoard[tempY][greenCurrentX] != '0' || greenPathFound) {
					greenCurrentY = greenCurrentY;
					return false;
    154c:	e3a00000 	mov	r0, #0
    1550:	e12fff1e 	bx	lr
    1554:	e3a00000 	mov	r0, #0
    1558:	e12fff1e 	bx	lr
    155c:	e3a00000 	mov	r0, #0
    1560:	e12fff1e 	bx	lr
				int tempX = greenCurrentX - 1;

				//out of bounds, trying to move to an already occupied spot, or game over: don't change position
				if(tempX < 0 || tempX > 4 || gameBoard[greenCurrentY][tempX] != '0' || greenPathFound) {
					greenCurrentX = greenCurrentX;
					return false;
    1564:	e3a00000 	mov	r0, #0
    1568:	e12fff1e 	bx	lr
    156c:	e3a00000 	mov	r0, #0
    1570:	e12fff1e 	bx	lr
    1574:	e3a00000 	mov	r0, #0
    1578:	e12fff1e 	bx	lr
				int tempY = greenCurrentY + 1;

				//out of bounds, trying to move to an already occupied spot, or game over: don't change position
				if(tempY < 0 || tempY > 4 || gameBoard[tempY][greenCurrentX] != '0' || greenPathFound) {
					greenCurrentY = greenCurrentY;
					return false;
    157c:	e3a00000 	mov	r0, #0
    1580:	e12fff1e 	bx	lr
    1584:	e3a00000 	mov	r0, #0
    1588:	e12fff1e 	bx	lr
    158c:	e3a00000 	mov	r0, #0
    1590:	e12fff1e 	bx	lr
				}

			} else {
				greenCurrentX = greenCurrentX;
				greenCurrentY = greenCurrentY;
				return false;
    1594:	e3a00000 	mov	r0, #0
    1598:	e12fff1e 	bx	lr
				int tempX = greenCurrentX + 1;

				//out of bounds, trying to move to an already occupied spot, or game over: don't change position
				if(tempX < 0 || tempX > 4 || gameBoard[greenCurrentY][tempX] != '0' || greenPathFound) {
					greenCurrentX = greenCurrentX;
					return false;
    159c:	e3a00000 	mov	r0, #0
    15a0:	e12fff1e 	bx	lr
    15a4:	e3a00000 	mov	r0, #0
    15a8:	e12fff1e 	bx	lr
    15ac:	e3a00000 	mov	r0, #0
    15b0:	e12fff1e 	bx	lr
				int tempY = blueCurrentY - 1;

				//out of bounds, trying to move to an already occupied spot, or game over: don't change position
				if(tempY < 0 || tempY > 4 || gameBoard[tempY][blueCurrentX] != '0' || bluePathFound) {
					blueCurrentY = blueCurrentY;
					return false;
    15b4:	e3a00000 	mov	r0, #0
    15b8:	e12fff1e 	bx	lr
    15bc:	e3a00000 	mov	r0, #0
    15c0:	e12fff1e 	bx	lr
    15c4:	e3a00000 	mov	r0, #0
    15c8:	e12fff1e 	bx	lr
				int tempX = blueCurrentX - 1;

				//out of bounds, trying to move to an already occupied spot, or game over: don't change position
				if(tempX < 0 || tempX > 4 || gameBoard[blueCurrentY][tempX] != '0' || bluePathFound) {
					blueCurrentX = blueCurrentX;
					return false;
    15cc:	e3a00000 	mov	r0, #0
    15d0:	e12fff1e 	bx	lr
    15d4:	e3a00000 	mov	r0, #0
    15d8:	e12fff1e 	bx	lr
    15dc:	e3a00000 	mov	r0, #0
    15e0:	e12fff1e 	bx	lr
				int tempY = blueCurrentY + 1;

				//out of bounds, trying to move to an already occupied spot, or game over: don't change position
				if(tempY < 0 || tempY > 4 || gameBoard[tempY][blueCurrentX] != '0' || bluePathFound) {
					blueCurrentY = blueCurrentY;
					return false;
    15e4:	e3a00000 	mov	r0, #0
    15e8:	e12fff1e 	bx	lr
    15ec:	e3a00000 	mov	r0, #0
    15f0:	e12fff1e 	bx	lr
    15f4:	e3a00000 	mov	r0, #0
    15f8:	e12fff1e 	bx	lr
				}

			} else {
				blueCurrentX = blueCurrentX;
				blueCurrentY = blueCurrentY;
				return false;
    15fc:	e3a00000 	mov	r0, #0
    1600:	e12fff1e 	bx	lr
				int tempX = blueCurrentX + 1;

				//out of bounds, trying to move to an already occupied spot, or game over: don't change position
				if(tempX < 0 || tempX > 4 || gameBoard[blueCurrentY][tempX] != '0' || bluePathFound) {
					blueCurrentX = blueCurrentX;
					return false;
    1604:	e3a00000 	mov	r0, #0
    1608:	e12fff1e 	bx	lr
    160c:	e3a00000 	mov	r0, #0
    1610:	e12fff1e 	bx	lr
    1614:	e3a00000 	mov	r0, #0
    1618:	e12fff1e 	bx	lr
				int tempY = yellowCurrentY - 1;

				//out of bounds, trying to move to an already occupied spot, or game over: don't change position
				if(tempY < 0 || tempY > 4 || gameBoard[tempY][yellowCurrentX] != '0' || yellowPathFound) {
					yellowCurrentY = yellowCurrentY;
					return false;
    161c:	e3a00000 	mov	r0, #0
    1620:	e12fff1e 	bx	lr
    1624:	e3a00000 	mov	r0, #0
    1628:	e12fff1e 	bx	lr
    162c:	e3a00000 	mov	r0, #0
    1630:	e12fff1e 	bx	lr
				int tempX = yellowCurrentX - 1;

				//out of bounds, trying to move to an already occupied spot, or game over: don't change position
				if(tempX < 0 || tempX > 4 || gameBoard[yellowCurrentY][tempX] != '0' || yellowPathFound) {
					yellowCurrentX = yellowCurrentX;
					return false;
    1634:	e3a00000 	mov	r0, #0
    1638:	e12fff1e 	bx	lr
    163c:	e3a00000 	mov	r0, #0
    1640:	e12fff1e 	bx	lr
    1644:	e3a00000 	mov	r0, #0
    1648:	e12fff1e 	bx	lr
				int tempY = yellowCurrentY + 1;

				//out of bounds, trying to move to an already occupied spot, or game over: don't change position
				if(tempY < 0 || tempY > 4 || gameBoard[tempY][yellowCurrentX] != '0' || yellowPathFound) {
					yellowCurrentY = yellowCurrentY;
					return false;
    164c:	e3a00000 	mov	r0, #0
    1650:	e12fff1e 	bx	lr
    1654:	e3a00000 	mov	r0, #0
    1658:	e12fff1e 	bx	lr
    165c:	e3a00000 	mov	r0, #0
    1660:	e12fff1e 	bx	lr
				}

			} else {
				yellowCurrentX = yellowCurrentX;
				yellowCurrentY = yellowCurrentY;
				return false;
    1664:	e3a00000 	mov	r0, #0
    1668:	e12fff1e 	bx	lr
				int tempX = yellowCurrentX + 1;

				//out of bounds, trying to move to an already occupied spot, or game over: don't change position
				if(tempX < 0 || tempX > 4 || gameBoard[yellowCurrentY][tempX] != '0' || yellowPathFound) {
					yellowCurrentX = yellowCurrentX;
					return false;
    166c:	e3a00000 	mov	r0, #0
    1670:	e12fff1e 	bx	lr
    1674:	e3a00000 	mov	r0, #0
    1678:	e12fff1e 	bx	lr
    167c:	e3a00000 	mov	r0, #0
    1680:	e12fff1e 	bx	lr
				orangeCurrentY = orangeCurrentY;
				return false;
			}

		} else {
			return false;
    1684:	e3a00000 	mov	r0, #0
    1688:	e12fff1e 	bx	lr
				int tempY = orangeCurrentY - 1;

				//out of bounds, trying to move to an already occupied spot, or game over: don't change position
				if(tempY < 0 || tempY > 4 || gameBoard[tempY][orangeCurrentX] != '0' || orangePathFound) {
					orangeCurrentY = orangeCurrentY;
					return false;
    168c:	e3a00000 	mov	r0, #0
    1690:	e12fff1e 	bx	lr
    1694:	e3a00000 	mov	r0, #0
    1698:	e12fff1e 	bx	lr
    169c:	e3a00000 	mov	r0, #0
    16a0:	e12fff1e 	bx	lr
				int tempX = orangeCurrentX - 1;

				//out of bounds, trying to move to an already occupied spot, or game over: don't change position
				if(tempX < 0 || tempX > 4 || gameBoard[orangeCurrentY][tempX] != '0' || orangePathFound) {
					orangeCurrentX = orangeCurrentX;
					return false;
    16a4:	e3a00000 	mov	r0, #0
    16a8:	e12fff1e 	bx	lr
    16ac:	e3a00000 	mov	r0, #0
    16b0:	e12fff1e 	bx	lr
    16b4:	e3a00000 	mov	r0, #0
    16b8:	e12fff1e 	bx	lr
				int tempY = orangeCurrentY + 1;

				//out of bounds, trying to move to an already occupied spot, or game over: don't change position
				if(tempY < 0 || tempY > 4 || gameBoard[tempY][orangeCurrentX] != '0' || orangePathFound) {
					orangeCurrentY = orangeCurrentY;
					return false;
    16bc:	e3a00000 	mov	r0, #0
    16c0:	e12fff1e 	bx	lr
    16c4:	e3a00000 	mov	r0, #0
    16c8:	e12fff1e 	bx	lr
    16cc:	e3a00000 	mov	r0, #0
    16d0:	e12fff1e 	bx	lr
				}

			} else {
				orangeCurrentX = orangeCurrentX;
				orangeCurrentY = orangeCurrentY;
				return false;
    16d4:	e3a00000 	mov	r0, #0
    16d8:	e12fff1e 	bx	lr
				int tempX = orangeCurrentX + 1;

				//out of bounds, trying to move to an already occupied spot, or game over: don't change position
				if(tempX < 0 || tempX > 4 || gameBoard[orangeCurrentY][tempX] != '0' || orangePathFound) {
					orangeCurrentX = orangeCurrentX;
					return false;
    16dc:	e3a00000 	mov	r0, #0
    16e0:	e12fff1e 	bx	lr
    16e4:	e3a00000 	mov	r0, #0
    16e8:	e12fff1e 	bx	lr
    16ec:	e3a00000 	mov	r0, #0
		}

		//game is over if all of these are true
		//gameOver = redPathFound && greenPathFound && bluePathFound && yellowPathFound && orangePathFound;
	//}
}
    16f0:	e12fff1e 	bx	lr

000016f4 <resetGame>:

void resetGame(bool reset, int board[][COLS]) {
    16f4:	e92d4ff8 	push	{r3, r4, r5, r6, r7, r8, r9, r10, r11, lr}
	if(reset) {
    16f8:	e3500000 	cmp	r0, #0
    16fc:	08bd8ff8 	popeq	{r3, r4, r5, r6, r7, r8, r9, r10, r11, pc}
    1700:	e1a03001 	mov	r3, r1
    1704:	e3a00005 	mov	r0, #5
		int i = 0;
		int j = 0;
		for (i = 0; i < ROWS; i++) {
			for (j = 0; j < COLS; j++) {
				board [i][j] = 0;
    1708:	e3a02000 	mov	r2, #0
    170c:	e5832000 	str	r2, [r3]
    1710:	e5832004 	str	r2, [r3, #4]
    1714:	e5832008 	str	r2, [r3, #8]
    1718:	e583200c 	str	r2, [r3, #12]
    171c:	e5832010 	str	r2, [r3, #16]
    1720:	e2833014 	add	r3, r3, #20

void resetGame(bool reset, int board[][COLS]) {
	if(reset) {
		int i = 0;
		int j = 0;
		for (i = 0; i < ROWS; i++) {
    1724:	e2500001 	subs	r0, r0, #1
    1728:	1afffff7 	bne	170c <resetGame+0x18>
			}
		}

		// hardcoding the positions
		// RED
		board [0][0] = 1;
    172c:	e3a03001 	mov	r3, #1
    1730:	e5813000 	str	r3, [r1]
		board [1][4] = 1;
    1734:	e5813024 	str	r3, [r1, #36]	; 0x24
		// GREEN
		board [2][0] = 2;
    1738:	e3a03002 	mov	r3, #2
    173c:	e5813028 	str	r3, [r1, #40]	; 0x28
		board [1][3] = 2;
    1740:	e5813020 	str	r3, [r1, #32]
		// BLUE
		board [2][1] = 3;
    1744:	e3a03003 	mov	r3, #3
    1748:	e581302c 	str	r3, [r1, #44]	; 0x2c
		board [2][4] = 3;
    174c:	e5813038 	str	r3, [r1, #56]	; 0x38
		// YELLOW
		board [4][0] = 4;
    1750:	e3a03004 	mov	r3, #4
    1754:	e5813050 	str	r3, [r1, #80]	; 0x50
		board [3][3] = 4;
    1758:	e5813048 	str	r3, [r1, #72]	; 0x48
		// ORANGE
		board [4][1] = 5;
    175c:	e3a03005 	mov	r3, #5
    1760:	e5813054 	str	r3, [r1, #84]	; 0x54
		board [3][4] = 5;
    1764:	e581304c 	str	r3, [r1, #76]	; 0x4c
		//game is over if all of these are true
		//gameOver = redPathFound && greenPathFound && bluePathFound && yellowPathFound && orangePathFound;
	//}
}

void resetGame(bool reset, int board[][COLS]) {
    1768:	e2417004 	sub	r7, r1, #4
		board [4][1] = 5;
		board [3][4] = 5;

		int row, col;
		//draw original screen
		for (row = 0; row < ROWS; row++) {
    176c:	e3a06000 	mov	r6, #0
		//gameOver = redPathFound && greenPathFound && bluePathFound && yellowPathFound && orangePathFound;
	//}
}

void resetGame(bool reset, int board[][COLS]) {
	if(reset) {
    1770:	e1a08006 	mov	r8, r6
					// printf("%d", board[row][col]);
					// printf("\n");
					// printf("board position: \n");
					// printf("%d ", row);
					// printf("%d \n", col);
					fill_color(row, col, ORANGE_U16);
    1774:	e30fbbe0 	movw	r11, #64480	; 0xfbe0
    1778:	e34fbfff 	movt	r11, #65535	; 0xffff
					// printf("%d", board[row][col]);
					// printf("\n");
					// printf("board position: \n");
					// printf("%d ", row);
					// printf("%d \n", col);
					fill_color(row, col, GREEN_U16);
    177c:	e3a09e7e 	mov	r9, #2016	; 0x7e0
					// printf("%d", board[row][col]);
					// printf("\n");
					// printf("board position: \n");
					// printf("%d ", row);
					// printf("%d \n", col);
					fill_color(row, col, RED_U16);
    1780:	e3a0ab3e 	mov	r10, #63488	; 0xf800
    1784:	e34fafff 	movt	r10, #65535	; 0xffff
    1788:	ea000029 	b	1834 <resetGame+0x140>

		int row, col;
		//draw original screen
		for (row = 0; row < ROWS; row++) {
			for (col = 0; col < COLS; col++) {
				if (board[row][col] == RED) {
    178c:	e5b53004 	ldr	r3, [r5, #4]!
    1790:	e3530001 	cmp	r3, #1
    1794:	1a000004 	bne	17ac <resetGame+0xb8>
					// printf("%d", board[row][col]);
					// printf("\n");
					// printf("board position: \n");
					// printf("%d ", row);
					// printf("%d \n", col);
					fill_color(row, col, RED_U16);
    1798:	e1a00006 	mov	r0, r6
    179c:	e1a01004 	mov	r1, r4
    17a0:	e1a0200a 	mov	r2, r10
    17a4:	ebfffb54 	bl	4fc <fill_color>
    17a8:	ea00001a 	b	1818 <resetGame+0x124>
				}

				else if (board[row][col] == GREEN) {
    17ac:	e3530002 	cmp	r3, #2
    17b0:	1a000004 	bne	17c8 <resetGame+0xd4>
					// printf("%d", board[row][col]);
					// printf("\n");
					// printf("board position: \n");
					// printf("%d ", row);
					// printf("%d \n", col);
					fill_color(row, col, GREEN_U16);
    17b4:	e1a00006 	mov	r0, r6
    17b8:	e1a01004 	mov	r1, r4
    17bc:	e1a02009 	mov	r2, r9
    17c0:	ebfffb4d 	bl	4fc <fill_color>
    17c4:	ea000013 	b	1818 <resetGame+0x124>
				}

				else if (board[row][col] == BLUE) {
    17c8:	e3530003 	cmp	r3, #3
    17cc:	1a000004 	bne	17e4 <resetGame+0xf0>
					// printf("%d", board[row][col]);
					// printf("\n");
					// printf("board position: \n");
					// printf("%d ", row);
					// printf("%d \n", col);
					fill_color(row, col, BLUE_U16);
    17d0:	e1a00006 	mov	r0, r6
    17d4:	e1a01004 	mov	r1, r4
    17d8:	e3a0201f 	mov	r2, #31
    17dc:	ebfffb46 	bl	4fc <fill_color>
    17e0:	ea00000c 	b	1818 <resetGame+0x124>
				}

				else if (board[row][col] == YELLOW) {
    17e4:	e3530004 	cmp	r3, #4
    17e8:	1a000004 	bne	1800 <resetGame+0x10c>
					// printf("%d", board[row][col]);
					// printf("\n");
					// printf("board position: \n");
					// printf("%d ", row);
					// printf("%d \n", col);
					fill_color(row, col, YELLOW_U16);
    17ec:	e1a00006 	mov	r0, r6
    17f0:	e1a01004 	mov	r1, r4
    17f4:	e3e0201f 	mvn	r2, #31
    17f8:	ebfffb3f 	bl	4fc <fill_color>
    17fc:	ea000005 	b	1818 <resetGame+0x124>
				}

				else if (board[row][col] == ORANGE) {
    1800:	e3530005 	cmp	r3, #5
    1804:	1a000003 	bne	1818 <resetGame+0x124>
					// printf("%d", board[row][col]);
					// printf("\n");
					// printf("board position: \n");
					// printf("%d ", row);
					// printf("%d \n", col);
					fill_color(row, col, ORANGE_U16);
    1808:	e1a00006 	mov	r0, r6
    180c:	e1a01004 	mov	r1, r4
    1810:	e1a0200b 	mov	r2, r11
    1814:	ebfffb38 	bl	4fc <fill_color>
		board [3][4] = 5;

		int row, col;
		//draw original screen
		for (row = 0; row < ROWS; row++) {
			for (col = 0; col < COLS; col++) {
    1818:	e2844001 	add	r4, r4, #1
    181c:	e3540005 	cmp	r4, #5
    1820:	1affffd9 	bne	178c <resetGame+0x98>
		board [4][1] = 5;
		board [3][4] = 5;

		int row, col;
		//draw original screen
		for (row = 0; row < ROWS; row++) {
    1824:	e2866001 	add	r6, r6, #1
    1828:	e2877014 	add	r7, r7, #20
    182c:	e3560005 	cmp	r6, #5
    1830:	0a000002 	beq	1840 <resetGame+0x14c>
		//gameOver = redPathFound && greenPathFound && bluePathFound && yellowPathFound && orangePathFound;
	//}
}

void resetGame(bool reset, int board[][COLS]) {
	if(reset) {
    1834:	e1a05007 	mov	r5, r7
    1838:	e1a04008 	mov	r4, r8
    183c:	eaffffd2 	b	178c <resetGame+0x98>
			}
		}

		//reset all global variables
		//global variables for keeping track of game status
		gameOver = false;
    1840:	e30f3314 	movw	r3, #62228	; 0xf314
    1844:	e3403001 	movt	r3, #1
    1848:	e3a01000 	mov	r1, #0
    184c:	e5c3103c 	strb	r1, [r3, #60]	; 0x3c
		redPathFound = false;
    1850:	e5c31030 	strb	r1, [r3, #48]	; 0x30
		greenPathFound = false;
    1854:	e5c31038 	strb	r1, [r3, #56]	; 0x38
		bluePathFound = false;
    1858:	e5c31039 	strb	r1, [r3, #57]	; 0x39
		yellowPathFound = false;
    185c:	e5c3103a 	strb	r1, [r3, #58]	; 0x3a
		orangePathFound = false;
    1860:	e5c3103b 	strb	r1, [r3, #59]	; 0x3b

		//global variables for keeping track of position - initialized to the starting positions
		redCurrentX = 0;
    1864:	e583102c 	str	r1, [r3, #44]	; 0x2c
		redCurrentY = 0;
    1868:	e5831028 	str	r1, [r3, #40]	; 0x28

		greenCurrentX = 2;
    186c:	e30e2e98 	movw	r2, #61080	; 0xee98
    1870:	e3402001 	movt	r2, #1
    1874:	e3a00002 	mov	r0, #2
    1878:	e5820000 	str	r0, [r2]
		greenCurrentY = 0;
    187c:	e5831034 	str	r1, [r3, #52]	; 0x34

		blueCurrentX = 2;
    1880:	e5820008 	str	r0, [r2, #8]
		blueCurrentY = 4;
    1884:	e3a00004 	mov	r0, #4
    1888:	e5820004 	str	r0, [r2, #4]

		yellowCurrentX = 4;
    188c:	e582000c 	str	r0, [r2, #12]
		yellowCurrentY = 0;
    1890:	e5831040 	str	r1, [r3, #64]	; 0x40

		orangeCurrentX = 3;
    1894:	e3a03003 	mov	r3, #3
    1898:	e5823014 	str	r3, [r2, #20]
		orangeCurrentY = 4;
    189c:	e5820010 	str	r0, [r2, #16]
		//game is over if all of these are true
		//gameOver = redPathFound && greenPathFound && bluePathFound && yellowPathFound && orangePathFound;
	//}
}

void resetGame(bool reset, int board[][COLS]) {
    18a0:	e30f7314 	movw	r7, #62228	; 0xf314
    18a4:	e3407001 	movt	r7, #1
    18a8:	e1a09001 	mov	r9, r1
				if(x == 0 && y == 0) { //red start
					gameBoard[x][y] = 'r';
				} else if(y == 1 && x == 4) { //red end
					gameBoard[x][y] = 'R';
				} else if(y == 2 && x == 0) { //green start
					gameBoard[x][y] = 'g';
    18ac:	e3a0b067 	mov	r11, #103	; 0x67
		for(x = 0; x < 5; x++) {
			for(y = 0; y < 5; y++) {
				if(x == 0 && y == 0) { //red start
					gameBoard[x][y] = 'r';
				} else if(y == 1 && x == 4) { //red end
					gameBoard[x][y] = 'R';
    18b0:	e3a08052 	mov	r8, #82	; 0x52
    18b4:	ea000042 	b	19c4 <resetGame+0x2d0>
		//reset gameBoard
		//initializing the gameBoard variable
		int x = 0, y = 0;
		for(x = 0; x < 5; x++) {
			for(y = 0; y < 5; y++) {
				if(x == 0 && y == 0) { //red start
    18b8:	e1930001 	orrs	r0, r3, r1
					gameBoard[x][y] = 'r';
    18bc:	05c24000 	strbeq	r4, [r2]
		//reset gameBoard
		//initializing the gameBoard variable
		int x = 0, y = 0;
		for(x = 0; x < 5; x++) {
			for(y = 0; y < 5; y++) {
				if(x == 0 && y == 0) { //red start
    18c0:	0a000038 	beq	19a8 <resetGame+0x2b4>
					gameBoard[x][y] = 'r';
				} else if(y == 1 && x == 4) { //red end
    18c4:	e3530001 	cmp	r3, #1
    18c8:	13a00000 	movne	r0, #0
    18cc:	03a00001 	moveq	r0, #1
    18d0:	e3510004 	cmp	r1, #4
    18d4:	13a0c000 	movne	r12, #0
    18d8:	03a0c001 	moveq	r12, #1
    18dc:	e110000c 	tst	r0, r12
					gameBoard[x][y] = 'R';
    18e0:	15c28000 	strbne	r8, [r2]
		int x = 0, y = 0;
		for(x = 0; x < 5; x++) {
			for(y = 0; y < 5; y++) {
				if(x == 0 && y == 0) { //red start
					gameBoard[x][y] = 'r';
				} else if(y == 1 && x == 4) { //red end
    18e4:	1a00002f 	bne	19a8 <resetGame+0x2b4>
					gameBoard[x][y] = 'R';
				} else if(y == 2 && x == 0) { //green start
    18e8:	e3530002 	cmp	r3, #2
    18ec:	13a05000 	movne	r5, #0
    18f0:	03a05001 	moveq	r5, #1
    18f4:	e2716001 	rsbs	r6, r1, #1
    18f8:	33a06000 	movcc	r6, #0
    18fc:	e1150006 	tst	r5, r6
					gameBoard[x][y] = 'g';
    1900:	15c2b000 	strbne	r11, [r2]
			for(y = 0; y < 5; y++) {
				if(x == 0 && y == 0) { //red start
					gameBoard[x][y] = 'r';
				} else if(y == 1 && x == 4) { //red end
					gameBoard[x][y] = 'R';
				} else if(y == 2 && x == 0) { //green start
    1904:	1a000027 	bne	19a8 <resetGame+0x2b4>
					gameBoard[x][y] = 'g';
				} else if(y == 1 && x == 3) { //green end
    1908:	e3510003 	cmp	r1, #3
    190c:	13a0a000 	movne	r10, #0
    1910:	03a0a001 	moveq	r10, #1
    1914:	e110000a 	tst	r0, r10
					gameBoard[x][y] = 'G';
    1918:	13a00047 	movne	r0, #71	; 0x47
    191c:	15c20000 	strbne	r0, [r2]
					gameBoard[x][y] = 'r';
				} else if(y == 1 && x == 4) { //red end
					gameBoard[x][y] = 'R';
				} else if(y == 2 && x == 0) { //green start
					gameBoard[x][y] = 'g';
				} else if(y == 1 && x == 3) { //green end
    1920:	1a000020 	bne	19a8 <resetGame+0x2b4>
					gameBoard[x][y] = 'G';
				} else if(y == 2 && x == 4) { //blue start
    1924:	e115000c 	tst	r5, r12
					gameBoard[x][y] = 'b';
    1928:	13a00062 	movne	r0, #98	; 0x62
    192c:	15c20000 	strbne	r0, [r2]
					gameBoard[x][y] = 'R';
				} else if(y == 2 && x == 0) { //green start
					gameBoard[x][y] = 'g';
				} else if(y == 1 && x == 3) { //green end
					gameBoard[x][y] = 'G';
				} else if(y == 2 && x == 4) { //blue start
    1930:	1a00001c 	bne	19a8 <resetGame+0x2b4>
					gameBoard[x][y] = 'b';
				} else if(y == 2 && x == 1) { //blue end
    1934:	e3510001 	cmp	r1, #1
    1938:	13a00000 	movne	r0, #0
    193c:	03a00001 	moveq	r0, #1
    1940:	e1150000 	tst	r5, r0
					gameBoard[x][y] = 'B';
    1944:	13a00042 	movne	r0, #66	; 0x42
    1948:	15c20000 	strbne	r0, [r2]
					gameBoard[x][y] = 'g';
				} else if(y == 1 && x == 3) { //green end
					gameBoard[x][y] = 'G';
				} else if(y == 2 && x == 4) { //blue start
					gameBoard[x][y] = 'b';
				} else if(y == 2 && x == 1) { //blue end
    194c:	1a000015 	bne	19a8 <resetGame+0x2b4>
					gameBoard[x][y] = 'B';
				} else if(y == 4 && x == 0) { //yellow start
    1950:	e3530004 	cmp	r3, #4
    1954:	13a05000 	movne	r5, #0
    1958:	03a05001 	moveq	r5, #1
    195c:	e1150006 	tst	r5, r6
					gameBoard[x][y] = 'y';
    1960:	13a00079 	movne	r0, #121	; 0x79
    1964:	15c20000 	strbne	r0, [r2]
					gameBoard[x][y] = 'G';
				} else if(y == 2 && x == 4) { //blue start
					gameBoard[x][y] = 'b';
				} else if(y == 2 && x == 1) { //blue end
					gameBoard[x][y] = 'B';
				} else if(y == 4 && x == 0) { //yellow start
    1968:	1a00000e 	bne	19a8 <resetGame+0x2b4>
					gameBoard[x][y] = 'y';
				} else if(y == 3 && x == 3) { //yellow end
    196c:	e3530003 	cmp	r3, #3
    1970:	13a06000 	movne	r6, #0
    1974:	03a06001 	moveq	r6, #1
    1978:	e116000a 	tst	r6, r10
					gameBoard[x][y] = 'Y';
    197c:	13a00059 	movne	r0, #89	; 0x59
    1980:	15c20000 	strbne	r0, [r2]
					gameBoard[x][y] = 'b';
				} else if(y == 2 && x == 1) { //blue end
					gameBoard[x][y] = 'B';
				} else if(y == 4 && x == 0) { //yellow start
					gameBoard[x][y] = 'y';
				} else if(y == 3 && x == 3) { //yellow end
    1984:	1a000007 	bne	19a8 <resetGame+0x2b4>
					gameBoard[x][y] = 'Y';
				} else if(y == 3 && x == 4) { //orange start
    1988:	e116000c 	tst	r6, r12
					gameBoard[x][y] = 'o';
    198c:	13a0006f 	movne	r0, #111	; 0x6f
    1990:	15c20000 	strbne	r0, [r2]
					gameBoard[x][y] = 'B';
				} else if(y == 4 && x == 0) { //yellow start
					gameBoard[x][y] = 'y';
				} else if(y == 3 && x == 3) { //yellow end
					gameBoard[x][y] = 'Y';
				} else if(y == 3 && x == 4) { //orange start
    1994:	1a000003 	bne	19a8 <resetGame+0x2b4>
					gameBoard[x][y] = 'o';
				} else if(y == 4 && x == 1) { //orange end
    1998:	e1150000 	tst	r5, r0
					gameBoard[x][y] = 'O';
    199c:	13a0004f 	movne	r0, #79	; 0x4f
				} else { //all other non-occupied places
					gameBoard[x][y] = '0';
    19a0:	03a00030 	moveq	r0, #48	; 0x30
    19a4:	e5c20000 	strb	r0, [r2]

		//reset gameBoard
		//initializing the gameBoard variable
		int x = 0, y = 0;
		for(x = 0; x < 5; x++) {
			for(y = 0; y < 5; y++) {
    19a8:	e2833001 	add	r3, r3, #1
    19ac:	e2822001 	add	r2, r2, #1
    19b0:	e3530005 	cmp	r3, #5
    19b4:	1affffbf 	bne	18b8 <resetGame+0x1c4>
		orangeCurrentY = 4;

		//reset gameBoard
		//initializing the gameBoard variable
		int x = 0, y = 0;
		for(x = 0; x < 5; x++) {
    19b8:	e2811001 	add	r1, r1, #1
    19bc:	e3510005 	cmp	r1, #5
    19c0:	08bd8ff8 	popeq	{r3, r4, r5, r6, r7, r8, r9, r10, r11, pc}
		//game is over if all of these are true
		//gameOver = redPathFound && greenPathFound && bluePathFound && yellowPathFound && orangePathFound;
	//}
}

void resetGame(bool reset, int board[][COLS]) {
    19c4:	e0812101 	add	r2, r1, r1, lsl #2
    19c8:	e0872002 	add	r2, r7, r2
    19cc:	e1a03009 	mov	r3, r9
		//initializing the gameBoard variable
		int x = 0, y = 0;
		for(x = 0; x < 5; x++) {
			for(y = 0; y < 5; y++) {
				if(x == 0 && y == 0) { //red start
					gameBoard[x][y] = 'r';
    19d0:	e3a04072 	mov	r4, #114	; 0x72
    19d4:	eaffffb7 	b	18b8 <resetGame+0x1c4>

000019d8 <KEY_ISR>:
void config_KEYs() {
	volatile int * KEY_ptr = (int *) 0xFF200050; // KEY base address
	*(KEY_ptr + 2) = 0xF; // enable interrupts for all four KEYs
}

void KEY_ISR() {
    19d8:	e92d4010 	push	{r4, lr}
	volatile int *KEY_ptr = (int *) 0xFF200050;
	/* HEX display base address */
	volatile int *HEX3_HEX0_ptr = (int *) 0xFF200020;
	volatile int* RLEDs = (int*) 0xFF200000;
	int press, HEX_bits, LEDs;
	press = *(KEY_ptr + 3); // read the pushbutton interrupt register
    19dc:	e3a03000 	mov	r3, #0
    19e0:	e34f3f20 	movt	r3, #65312	; 0xff20
    19e4:	e593405c 	ldr	r4, [r3, #92]	; 0x5c

	if(press != 0) { //if KEY is pressed, reset the game
    19e8:	e3540000 	cmp	r4, #0
    19ec:	0a000029 	beq	1a98 <KEY_ISR+0xc0>
		pressedAgain = !pressedAgain;
    19f0:	e30f3314 	movw	r3, #62228	; 0xf314
    19f4:	e3403001 	movt	r3, #1
    19f8:	e5d32044 	ldrb	r2, [r3, #68]	; 0x44
    19fc:	e2222001 	eor	r2, r2, #1
    1a00:	e5c32044 	strb	r2, [r3, #68]	; 0x44
		reset = pressedAgain;
    1a04:	e5d32044 	ldrb	r2, [r3, #68]	; 0x44
    1a08:	e5c32045 	strb	r2, [r3, #69]	; 0x45

		if(reset) {
    1a0c:	e5d33045 	ldrb	r3, [r3, #69]	; 0x45
    1a10:	e3530000 	cmp	r3, #0
    1a14:	0a000009 	beq	1a40 <KEY_ISR+0x68>
			resetGame(reset, board);
    1a18:	e30f1314 	movw	r1, #62228	; 0xf314
    1a1c:	e3401001 	movt	r1, #1
    1a20:	e5d10045 	ldrb	r0, [r1, #69]	; 0x45
    1a24:	e2811048 	add	r1, r1, #72	; 0x48
    1a28:	ebffff31 	bl	16f4 <resetGame>
			LEDs = 0xFFFF;
			*RLEDs = LEDs;
    1a2c:	e3a03000 	mov	r3, #0
    1a30:	e34f3f20 	movt	r3, #65312	; 0xff20
    1a34:	e30f2fff 	movw	r2, #65535	; 0xffff
    1a38:	e5832000 	str	r2, [r3]
    1a3c:	ea000003 	b	1a50 <KEY_ISR+0x78>
		} else {
			LEDs = 0x0000;
			*RLEDs = LEDs;
    1a40:	e3a03000 	mov	r3, #0
    1a44:	e34f3f20 	movt	r3, #65312	; 0xff20
    1a48:	e3a02000 	mov	r2, #0
    1a4c:	e5832000 	str	r2, [r3]
		}

	}

	*(KEY_ptr + 3) = press; // Clear the interrupt
    1a50:	e3a03000 	mov	r3, #0
    1a54:	e34f3f20 	movt	r3, #65312	; 0xff20
    1a58:	e583405c 	str	r4, [r3, #92]	; 0x5c
	/* if(*(KEY_ptr + 3) == 0) {
		resetGame = false;

	} */

	if (press & 0x1) // KEY0
    1a5c:	e3140001 	tst	r4, #1
		HEX_bits = 0b00111111;
    1a60:	13a0403f 	movne	r4, #63	; 0x3f
	/* if(*(KEY_ptr + 3) == 0) {
		resetGame = false;

	} */

	if (press & 0x1) // KEY0
    1a64:	1a000007 	bne	1a88 <KEY_ISR+0xb0>
		HEX_bits = 0b00111111;
	else if (press & 0x2) // KEY1
    1a68:	e3140002 	tst	r4, #2
		HEX_bits = 0b00000110;
    1a6c:	13a04006 	movne	r4, #6

	} */

	if (press & 0x1) // KEY0
		HEX_bits = 0b00111111;
	else if (press & 0x2) // KEY1
    1a70:	1a000004 	bne	1a88 <KEY_ISR+0xb0>
		HEX_bits = 0b00000110;
	else if (press & 0x4) // KEY2
    1a74:	e2044004 	and	r4, r4, #4
		HEX_bits = 0b01011011;
    1a78:	e3540000 	cmp	r4, #0
    1a7c:	03a0404f 	moveq	r4, #79	; 0x4f
    1a80:	13a0405b 	movne	r4, #91	; 0x5b
    1a84:	eaffffff 	b	1a88 <KEY_ISR+0xb0>
	else // press & 0x8, which is KEY3
		HEX_bits = 0b01001111;

	*HEX3_HEX0_ptr = HEX_bits;
    1a88:	e3a03000 	mov	r3, #0
    1a8c:	e34f3f20 	movt	r3, #65312	; 0xff20
    1a90:	e5834020 	str	r4, [r3, #32]
    1a94:	e8bd8010 	pop	{r4, pc}
			*RLEDs = LEDs;
		}

	}

	*(KEY_ptr + 3) = press; // Clear the interrupt
    1a98:	e3a03000 	mov	r3, #0
    1a9c:	e34f3f20 	movt	r3, #65312	; 0xff20
    1aa0:	e3a02000 	mov	r2, #0
    1aa4:	e583205c 	str	r2, [r3, #92]	; 0x5c
    1aa8:	eafffff1 	b	1a74 <KEY_ISR+0x9c>

00001aac <__cs3_isr_irq>:
	//printf("%c\n", keyPressed);
	return;
}

// Define the IRQ exception handler
void __attribute__ ((interrupt)) __cs3_isr_irq () {
    1aac:	e24ee004 	sub	lr, lr, #4
    1ab0:	e92d503f 	push	{r0, r1, r2, r3, r4, r5, r12, lr}
	int interrupt_ID = *((int *) 0xFFFEC10C); //Read the ICCIAR from the CPU Interface in the GIC
    1ab4:	e3e03a13 	mvn	r3, #77824	; 0x13000
    1ab8:	e5134ef3 	ldr	r4, [r3, #-3827]	; 0xfffff10d
	if (interrupt_ID == 79) { // check if interrupt is from the PS/2
    1abc:	e354004f 	cmp	r4, #79	; 0x4f
    1ac0:	1a000001 	bne	1acc <__cs3_isr_irq+0x20>
		PS2_ISR();
    1ac4:	ebfffb37 	bl	7a8 <PS2_ISR>
    1ac8:	ea000004 	b	1ae0 <__cs3_isr_irq+0x34>
	} else if(interrupt_ID == 73) {
    1acc:	e3540049 	cmp	r4, #73	; 0x49
    1ad0:	1a000001 	bne	1adc <__cs3_isr_irq+0x30>
		KEY_ISR();
    1ad4:	ebffffbf 	bl	19d8 <KEY_ISR>
    1ad8:	ea000000 	b	1ae0 <__cs3_isr_irq+0x34>
    1adc:	eafffffe 	b	1adc <__cs3_isr_irq+0x30>
	} else
		while (1); // if unexpected, then stay here

	// Write to the End of Interrupt Register (ICCEOIR)
	*((int *) 0xFFFEC110) = interrupt_ID;
    1ae0:	e3e03a13 	mvn	r3, #77824	; 0x13000
    1ae4:	e5034eef 	str	r4, [r3, #-3823]	; 0xfffff111
    1ae8:	e8fd903f 	ldm	sp!, {r0, r1, r2, r3, r4, r5, r12, pc}^

00001aec <checkGameOver>:


	}
}

bool checkGameOver() {
    1aec:	e92d0030 	push	{r4, r5}
	int x, y;
	
	for(x = 0; x < 5; x++) {
		for(y = 0; y < 5; y++) {
    1af0:	e3a00000 	mov	r0, #0
}

bool checkGameOver() {
	int x, y;
	
	for(x = 0; x < 5; x++) {
    1af4:	e1a0c000 	mov	r12, r0
		for(y = 0; y < 5; y++) {
			if(board[x][y] == 0) {
    1af8:	e30f4314 	movw	r4, #62228	; 0xf314
    1afc:	e3404001 	movt	r4, #1

bool checkGameOver() {
	int x, y;
	
	for(x = 0; x < 5; x++) {
		for(y = 0; y < 5; y++) {
    1b00:	e3a05001 	mov	r5, #1
    1b04:	ea000009 	b	1b30 <checkGameOver+0x44>
			if(board[x][y] == 0) {
    1b08:	e5b21004 	ldr	r1, [r2, #4]!
    1b0c:	e3510000 	cmp	r1, #0
    1b10:	0a00000f 	beq	1b54 <checkGameOver+0x68>

bool checkGameOver() {
	int x, y;
	
	for(x = 0; x < 5; x++) {
		for(y = 0; y < 5; y++) {
    1b14:	e2833001 	add	r3, r3, #1
    1b18:	e3530005 	cmp	r3, #5
    1b1c:	1afffff9 	bne	1b08 <checkGameOver+0x1c>
}

bool checkGameOver() {
	int x, y;
	
	for(x = 0; x < 5; x++) {
    1b20:	e28cc001 	add	r12, r12, #1
    1b24:	e2800014 	add	r0, r0, #20
    1b28:	e3500064 	cmp	r0, #100	; 0x64
    1b2c:	0a00000a 	beq	1b5c <checkGameOver+0x70>
		for(y = 0; y < 5; y++) {
			if(board[x][y] == 0) {
    1b30:	e2843048 	add	r3, r4, #72	; 0x48
    1b34:	e7903003 	ldr	r3, [r0, r3]
    1b38:	e3530000 	cmp	r3, #0
    1b3c:	0a000008 	beq	1b64 <checkGameOver+0x78>


	}
}

bool checkGameOver() {
    1b40:	e2843048 	add	r3, r4, #72	; 0x48
    1b44:	e08c210c 	add	r2, r12, r12, lsl #2
    1b48:	e0832102 	add	r2, r3, r2, lsl #2
	int x, y;
	
	for(x = 0; x < 5; x++) {
		for(y = 0; y < 5; y++) {
    1b4c:	e1a03005 	mov	r3, r5
    1b50:	eaffffec 	b	1b08 <checkGameOver+0x1c>
			if(board[x][y] == 0) {
				return false;
    1b54:	e3a00000 	mov	r0, #0
    1b58:	ea000002 	b	1b68 <checkGameOver+0x7c>
			}
		}
	}
	return true;
    1b5c:	e3a00001 	mov	r0, #1
    1b60:	ea000000 	b	1b68 <checkGameOver+0x7c>
	int x, y;
	
	for(x = 0; x < 5; x++) {
		for(y = 0; y < 5; y++) {
			if(board[x][y] == 0) {
				return false;
    1b64:	e3a00000 	mov	r0, #0
			}
		}
	}
	return true;
}
    1b68:	e8bd0030 	pop	{r4, r5}
    1b6c:	e12fff1e 	bx	lr

00001b70 <draw_game_over>:

void draw_game_over() {
    1b70:	e92d45f0 	push	{r4, r5, r6, r7, r8, r10, lr}
    1b74:	e24dd00c 	sub	sp, sp, #12
    1b78:	e3a08000 	mov	r8, #0
    int i, j;
    for (i = 0; i < 240; i++) {
    1b7c:	e1a07008 	mov	r7, r8
        volatile int j = 0;
    1b80:	e1a0a008 	mov	r10, r8
        for (j = 0; j < 320; j++) {
    1b84:	e300613f 	movw	r6, #319	; 0x13f
            if (GameOver[i * 320 + j] != 0x0000) {
    1b88:	e3025c30 	movw	r5, #11312	; 0x2c30
    1b8c:	e3405000 	movt	r5, #0
}

void draw_game_over() {
    int i, j;
    for (i = 0; i < 240; i++) {
        volatile int j = 0;
    1b90:	e58da004 	str	r10, [sp, #4]
        for (j = 0; j < 320; j++) {
    1b94:	e58da004 	str	r10, [sp, #4]
    1b98:	e59d3004 	ldr	r3, [sp, #4]
    1b9c:	e1530006 	cmp	r3, r6
    1ba0:	ca000013 	bgt	1bf4 <draw_game_over+0x84>
            if (GameOver[i * 320 + j] != 0x0000) {
    1ba4:	e1a04008 	mov	r4, r8
    1ba8:	e59d3004 	ldr	r3, [sp, #4]
    1bac:	e0843003 	add	r3, r4, r3
    1bb0:	e1a03083 	lsl	r3, r3, #1
    1bb4:	e19530b3 	ldrh	r3, [r5, r3]
    1bb8:	e3530000 	cmp	r3, #0
    1bbc:	0a000006 	beq	1bdc <draw_game_over+0x6c>
                plot_pixel(j, i, GameOver[i * 320 + j]);
    1bc0:	e59d0004 	ldr	r0, [sp, #4]
    1bc4:	e59d3004 	ldr	r3, [sp, #4]
    1bc8:	e0843003 	add	r3, r4, r3
    1bcc:	e1a03083 	lsl	r3, r3, #1
    1bd0:	e1a01007 	mov	r1, r7
    1bd4:	e19520f3 	ldrsh	r2, [r5, r3]
    1bd8:	ebfffa0b 	bl	40c <plot_pixel>

void draw_game_over() {
    int i, j;
    for (i = 0; i < 240; i++) {
        volatile int j = 0;
        for (j = 0; j < 320; j++) {
    1bdc:	e59d3004 	ldr	r3, [sp, #4]
    1be0:	e2833001 	add	r3, r3, #1
    1be4:	e58d3004 	str	r3, [sp, #4]
    1be8:	e59d3004 	ldr	r3, [sp, #4]
    1bec:	e1530006 	cmp	r3, r6
    1bf0:	daffffec 	ble	1ba8 <draw_game_over+0x38>
	return true;
}

void draw_game_over() {
    int i, j;
    for (i = 0; i < 240; i++) {
    1bf4:	e2877001 	add	r7, r7, #1
    1bf8:	e2888d05 	add	r8, r8, #320	; 0x140
    1bfc:	e35700f0 	cmp	r7, #240	; 0xf0
    1c00:	1affffe2 	bne	1b90 <draw_game_over+0x20>
            if (GameOver[i * 320 + j] != 0x0000) {
                plot_pixel(j, i, GameOver[i * 320 + j]);
            }
        }
    }
    1c04:	e28dd00c 	add	sp, sp, #12
    1c08:	e8bd85f0 	pop	{r4, r5, r6, r7, r8, r10, pc}

00001c0c <animate_line>:
    }
}

// code not shown for clear_screen() and draw_line() subroutines
// takes in argument for the box position on the board, the WASD direction and the U16 color.
void animate_line(int boardX, int boardY, int direction, short int line_color, short int color, int board[][COLS]) {
    1c0c:	e92d4ff0 	push	{r4, r5, r6, r7, r8, r9, r10, r11, lr}
    1c10:	e24dd014 	sub	sp, sp, #20
    1c14:	e1a09000 	mov	r9, r0
    1c18:	e1a0a001 	mov	r10, r1
    1c1c:	e1a07003 	mov	r7, r3
    1c20:	e1dd33f8 	ldrsh	r3, [sp, #56]	; 0x38
    1c24:	e58d300c 	str	r3, [sp, #12]

    //convert board position onto x,y coordinates on the screen
    int startX = boardX * 64;
    1c28:	e1a04300 	lsl	r4, r0, #6
    int startY = boardY * 48;
    1c2c:	e081b081 	add	r11, r1, r1, lsl #1
    1c30:	e1a0b20b 	lsl	r11, r11, #4
    1c34:	e1a0500b 	mov	r5, r11

    int endXRIGHT = startX + 64;
    1c38:	e2846040 	add	r6, r4, #64	; 0x40
    int endYUP = startY + 48;
    1c3c:	e28b8030 	add	r8, r11, #48	; 0x30
    int y0 = 0;  // starting y
    int y1 = 0;  // ending y

	bool isLegal;

    if(gameOver) {
    1c40:	e30f3314 	movw	r3, #62228	; 0xf314
    1c44:	e3403001 	movt	r3, #1
    1c48:	e5d3303c 	ldrb	r3, [r3, #60]	; 0x3c
    1c4c:	e3530000 	cmp	r3, #0
    1c50:	0a000001 	beq	1c5c <animate_line+0x50>
        draw_game_over();
    1c54:	ebffffc5 	bl	1b70 <draw_game_over>
    1c58:	ea00009d 	b	1ed4 <animate_line+0x2c8>
    } else if (direction == 1) {
    1c5c:	e3520001 	cmp	r2, #1
    1c60:	1a000024 	bne	1cf8 <animate_line+0xec>
        isLegal = isLegalMove(color_select, keyPressed);
    1c64:	e30f3314 	movw	r3, #62228	; 0xf314
    1c68:	e3403001 	movt	r3, #1
    1c6c:	e5930024 	ldr	r0, [r3, #36]	; 0x24
    1c70:	e5d31022 	ldrb	r1, [r3, #34]	; 0x22
    1c74:	ebfffb3e 	bl	974 <isLegalMove>
		if(isLegal) {
    1c78:	e3500000 	cmp	r0, #0
    1c7c:	0a000094 	beq	1ed4 <animate_line+0x2c8>
			volatile int* RLEDs = (int*) 0xFF200000;
			int LED = 0xFFFF;
			*RLEDs = LED;
    1c80:	e3a03000 	mov	r3, #0
    1c84:	e34f3f20 	movt	r3, #65312	; 0xff20
    1c88:	e30f2fff 	movw	r2, #65535	; 0xffff
    1c8c:	e5832000 	str	r2, [r3]
			//printf("legal move"); //testing
			x0 = startX;
			x1 = endXRIGHT;
			y0 = startY;
			y1 = startY;
			for (startY = boardY * 48; startY < endYUP; startY++) {
    1c90:	e15b0008 	cmp	r11, r8
    1c94:	aa00000a 	bge	1cc4 <animate_line+0xb8>
    }
}

// code not shown for clear_screen() and draw_line() subroutines
// takes in argument for the box position on the board, the WASD direction and the U16 color.
void animate_line(int boardX, int boardY, int direction, short int line_color, short int color, int board[][COLS]) {
    1c98:	e24b5030 	sub	r5, r11, #48	; 0x30
			x1 = endXRIGHT;
			y0 = startY;
			y1 = startY;
			for (startY = boardY * 48; startY < endYUP; startY++) {
				// Horizontal Line
				y0 -= direction;
    1c9c:	e24bb001 	sub	r11, r11, #1
				y1 -= direction;
				draw_line(x0, x1, y0, y1, line_color);
    1ca0:	e58d7000 	str	r7, [sp]
    1ca4:	e1a00004 	mov	r0, r4
    1ca8:	e1a01006 	mov	r1, r6
    1cac:	e1a0200b 	mov	r2, r11
    1cb0:	e1a0300b 	mov	r3, r11
    1cb4:	ebfffa4b 	bl	5e8 <draw_line>
				wait_for_vsync();
    1cb8:	ebfffa28 	bl	560 <wait_for_vsync>
			//printf("legal move"); //testing
			x0 = startX;
			x1 = endXRIGHT;
			y0 = startY;
			y1 = startY;
			for (startY = boardY * 48; startY < endYUP; startY++) {
    1cbc:	e15b0005 	cmp	r11, r5
    1cc0:	1afffff5 	bne	1c9c <animate_line+0x90>
				draw_line(x0, x1, y0, y1, line_color);
				wait_for_vsync();
				//draw_line(x0, x1, y0, y1, 0x0000);
			}
			//fill_color(boardX, boardY, line_color);
			if (boardX <= 5 && boardY <= 5 && boardX >= 0 && boardY >= 0) {
    1cc4:	e35a0005 	cmp	r10, #5
    1cc8:	d3590005 	cmple	r9, #5
    1ccc:	ca000080 	bgt	1ed4 <animate_line+0x2c8>
    1cd0:	e35a0000 	cmp	r10, #0
    1cd4:	a3590000 	cmpge	r9, #0
    1cd8:	ba00007d 	blt	1ed4 <animate_line+0x2c8>
				board[boardX][boardY - 1] = color;
    1cdc:	e0899109 	add	r9, r9, r9, lsl #2
    1ce0:	e59d203c 	ldr	r2, [sp, #60]	; 0x3c
    1ce4:	e0823109 	add	r3, r2, r9, lsl #2
    1ce8:	e24aa001 	sub	r10, r10, #1
    1cec:	e59d200c 	ldr	r2, [sp, #12]
    1cf0:	e783210a 	str	r2, [r3, r10, lsl #2]
    1cf4:	ea000076 	b	1ed4 <animate_line+0x2c8>
			}
		}

    }
    // A LEFT
    else if (direction == 2) {
    1cf8:	e3520002 	cmp	r2, #2
    1cfc:	1a000026 	bne	1d9c <animate_line+0x190>
		isLegal = isLegalMove(color_select, keyPressed);
    1d00:	e30f3314 	movw	r3, #62228	; 0xf314
    1d04:	e3403001 	movt	r3, #1
    1d08:	e5930024 	ldr	r0, [r3, #36]	; 0x24
    1d0c:	e5d31022 	ldrb	r1, [r3, #34]	; 0x22
    1d10:	ebfffb17 	bl	974 <isLegalMove>

		if(isLegal) {
    1d14:	e3500000 	cmp	r0, #0
    1d18:	0a00006d 	beq	1ed4 <animate_line+0x2c8>
    int startX = boardX * 64;
    int startY = boardY * 48;

    int endXRIGHT = startX + 64;
    int endYUP = startY + 48;
    int endXLEFT = startX - 64;
    1d1c:	e244b040 	sub	r11, r4, #64	; 0x40
		isLegal = isLegalMove(color_select, keyPressed);

		if(isLegal) {
			volatile int* RLEDs = (int*) 0xFF200000;
			int LED = 0xFFFF;
			*RLEDs = LED;
    1d20:	e3a03000 	mov	r3, #0
    1d24:	e34f3f20 	movt	r3, #65312	; 0xff20
    1d28:	e30f2fff 	movw	r2, #65535	; 0xffff
    1d2c:	e5832000 	str	r2, [r3]
			//printf("legal move"); //testing
			x0 = startX;
			x1 = startX;
			y0 = startY;
			y1 = endYUP; // needsd checking
			for (startX = boardX * 64; startX > endXLEFT; startX--) {
    1d30:	e154000b 	cmp	r4, r11
    1d34:	da00000b 	ble	1d68 <animate_line+0x15c>
		if(isLegal) {
			volatile int* RLEDs = (int*) 0xFF200000;
			int LED = 0xFFFF;
			*RLEDs = LED;
			//printf("legal move"); //testing
			x0 = startX;
    1d38:	e1a06004 	mov	r6, r4
			x1 = startX;
			y0 = startY;
			y1 = endYUP; // needsd checking
			for (startX = boardX * 64; startX > endXLEFT; startX--) {
				x0 -= direction;
    1d3c:	e2466002 	sub	r6, r6, #2
				x1 -= direction;
				draw_line(x0, x1, y0, y1, line_color);
    1d40:	e58d7000 	str	r7, [sp]
    1d44:	e1a00006 	mov	r0, r6
    1d48:	e1a01006 	mov	r1, r6
    1d4c:	e1a02005 	mov	r2, r5
    1d50:	e1a03008 	mov	r3, r8
    1d54:	ebfffa23 	bl	5e8 <draw_line>
				wait_for_vsync();
    1d58:	ebfffa00 	bl	560 <wait_for_vsync>
			//printf("legal move"); //testing
			x0 = startX;
			x1 = startX;
			y0 = startY;
			y1 = endYUP; // needsd checking
			for (startX = boardX * 64; startX > endXLEFT; startX--) {
    1d5c:	e2444001 	sub	r4, r4, #1
    1d60:	e15b0004 	cmp	r11, r4
    1d64:	bafffff4 	blt	1d3c <animate_line+0x130>
				x1 -= direction;
				draw_line(x0, x1, y0, y1, line_color);
				wait_for_vsync();
				//draw_line(x0, x1, y0, y1, 0x0000);
			}
			if (boardX <= 5 && boardY <= 5 && boardX >= 0 && boardY >= 0) {
    1d68:	e35a0005 	cmp	r10, #5
    1d6c:	d3590005 	cmple	r9, #5
    1d70:	ca000057 	bgt	1ed4 <animate_line+0x2c8>
    1d74:	e35a0000 	cmp	r10, #0
    1d78:	a3590000 	cmpge	r9, #0
    1d7c:	ba000054 	blt	1ed4 <animate_line+0x2c8>
				board[boardX - 1][boardY] = color;
    1d80:	e2499001 	sub	r9, r9, #1
    1d84:	e0899109 	add	r9, r9, r9, lsl #2
    1d88:	e59d203c 	ldr	r2, [sp, #60]	; 0x3c
    1d8c:	e0823109 	add	r3, r2, r9, lsl #2
    1d90:	e59d200c 	ldr	r2, [sp, #12]
    1d94:	e783210a 	str	r2, [r3, r10, lsl #2]
    1d98:	ea00004d 	b	1ed4 <animate_line+0x2c8>
		}


    }
    // S DOWNWARDS
    else if (direction == 3) {
    1d9c:	e3520003 	cmp	r2, #3
    1da0:	1a000025 	bne	1e3c <animate_line+0x230>
		isLegal = isLegalMove(color_select, keyPressed);
    1da4:	e30f3314 	movw	r3, #62228	; 0xf314
    1da8:	e3403001 	movt	r3, #1
    1dac:	e5930024 	ldr	r0, [r3, #36]	; 0x24
    1db0:	e5d31022 	ldrb	r1, [r3, #34]	; 0x22
    1db4:	ebfffaee 	bl	974 <isLegalMove>

		if(isLegal) {
    1db8:	e3500000 	cmp	r0, #0
    1dbc:	0a000044 	beq	1ed4 <animate_line+0x2c8>
    int startY = boardY * 48;

    int endXRIGHT = startX + 64;
    int endYUP = startY + 48;
    int endXLEFT = startX - 64;
    int endYDOWN = startY - 48;
    1dc0:	e24b8030 	sub	r8, r11, #48	; 0x30
		isLegal = isLegalMove(color_select, keyPressed);

		if(isLegal) {
			volatile int* RLEDs = (int*) 0xFF200000;
			int LED = 0xFFFF;
			*RLEDs = LED;
    1dc4:	e3a03000 	mov	r3, #0
    1dc8:	e34f3f20 	movt	r3, #65312	; 0xff20
    1dcc:	e30f2fff 	movw	r2, #65535	; 0xffff
    1dd0:	e5832000 	str	r2, [r3]
			//printf("legal move"); //testing
			x0 = startX;
			x1 = endXRIGHT;
			y0 = startY;
			y1 = startY;
			for (startY = boardY * 48; startY > endYDOWN; startY--) {
    1dd4:	e15b0008 	cmp	r11, r8
    1dd8:	da00000a 	ble	1e08 <animate_line+0x1fc>
				y0 += direction;
    1ddc:	e28bb003 	add	r11, r11, #3
				y1 += direction;
				draw_line(x0, x1, y0, y1, line_color);
    1de0:	e58d7000 	str	r7, [sp]
    1de4:	e1a00004 	mov	r0, r4
    1de8:	e1a01006 	mov	r1, r6
    1dec:	e1a0200b 	mov	r2, r11
    1df0:	e1a0300b 	mov	r3, r11
    1df4:	ebfff9fb 	bl	5e8 <draw_line>
				wait_for_vsync();
    1df8:	ebfff9d8 	bl	560 <wait_for_vsync>
			//printf("legal move"); //testing
			x0 = startX;
			x1 = endXRIGHT;
			y0 = startY;
			y1 = startY;
			for (startY = boardY * 48; startY > endYDOWN; startY--) {
    1dfc:	e2455001 	sub	r5, r5, #1
    1e00:	e1580005 	cmp	r8, r5
    1e04:	bafffff4 	blt	1ddc <animate_line+0x1d0>
				y1 += direction;
				draw_line(x0, x1, y0, y1, line_color);
				wait_for_vsync();
				//draw_line(x0, x1, y0, y1, 0x0000);
			}
			if (boardX <= 5 && boardY <= 5 && boardX >= 0 && boardY >= 0) {
    1e08:	e35a0005 	cmp	r10, #5
    1e0c:	d3590005 	cmple	r9, #5
    1e10:	ca00002f 	bgt	1ed4 <animate_line+0x2c8>
    1e14:	e35a0000 	cmp	r10, #0
    1e18:	a3590000 	cmpge	r9, #0
    1e1c:	ba00002c 	blt	1ed4 <animate_line+0x2c8>
				board[boardX][boardY + 1] = color;
    1e20:	e0899109 	add	r9, r9, r9, lsl #2
    1e24:	e59d203c 	ldr	r2, [sp, #60]	; 0x3c
    1e28:	e0823109 	add	r3, r2, r9, lsl #2
    1e2c:	e28aa001 	add	r10, r10, #1
    1e30:	e59d200c 	ldr	r2, [sp, #12]
    1e34:	e783210a 	str	r2, [r3, r10, lsl #2]
    1e38:	ea000025 	b	1ed4 <animate_line+0x2c8>
			}
		}
    }
    // D RIGHTWARDS
    else if (direction == 4) {
    1e3c:	e3520004 	cmp	r2, #4
    1e40:	1a000023 	bne	1ed4 <animate_line+0x2c8>
		isLegal = isLegalMove(color_select, keyPressed);
    1e44:	e30f3314 	movw	r3, #62228	; 0xf314
    1e48:	e3403001 	movt	r3, #1
    1e4c:	e5930024 	ldr	r0, [r3, #36]	; 0x24
    1e50:	e5d31022 	ldrb	r1, [r3, #34]	; 0x22
    1e54:	ebfffac6 	bl	974 <isLegalMove>

		if(isLegal) {
    1e58:	e3500000 	cmp	r0, #0
    1e5c:	0a00001c 	beq	1ed4 <animate_line+0x2c8>
			volatile int* RLEDs = (int*) 0xFF200000;
			int LED = 0xFFFF;
			*RLEDs = LED;
    1e60:	e3a03000 	mov	r3, #0
    1e64:	e34f3f20 	movt	r3, #65312	; 0xff20
    1e68:	e30f2fff 	movw	r2, #65535	; 0xffff
    1e6c:	e5832000 	str	r2, [r3]
			//printf("legal move"); //testing
			x0 = startX;
			x1 = x0;
			y0 = startY;
			y1 = endYUP; // needsd checking
			for (startX = boardX * 64; startX < endXRIGHT; startX++) {
    1e70:	e1540006 	cmp	r4, r6
    1e74:	aa00000a 	bge	1ea4 <animate_line+0x298>
    }
}

// code not shown for clear_screen() and draw_line() subroutines
// takes in argument for the box position on the board, the WASD direction and the U16 color.
void animate_line(int boardX, int boardY, int direction, short int line_color, short int color, int board[][COLS]) {
    1e78:	e2846c01 	add	r6, r4, #256	; 0x100
			x0 = startX;
			x1 = x0;
			y0 = startY;
			y1 = endYUP; // needsd checking
			for (startX = boardX * 64; startX < endXRIGHT; startX++) {
				x0 += direction;
    1e7c:	e2844004 	add	r4, r4, #4
				x1 += direction;
				draw_line(x0, x1, y0, y1, line_color);
    1e80:	e58d7000 	str	r7, [sp]
    1e84:	e1a00004 	mov	r0, r4
    1e88:	e1a01004 	mov	r1, r4
    1e8c:	e1a02005 	mov	r2, r5
    1e90:	e1a03008 	mov	r3, r8
    1e94:	ebfff9d3 	bl	5e8 <draw_line>
				wait_for_vsync();
    1e98:	ebfff9b0 	bl	560 <wait_for_vsync>
			//printf("legal move"); //testing
			x0 = startX;
			x1 = x0;
			y0 = startY;
			y1 = endYUP; // needsd checking
			for (startX = boardX * 64; startX < endXRIGHT; startX++) {
    1e9c:	e1540006 	cmp	r4, r6
    1ea0:	1afffff5 	bne	1e7c <animate_line+0x270>
				x1 += direction;
				draw_line(x0, x1, y0, y1, line_color);
				wait_for_vsync();
				//draw_line(x0, x1, y0, y1, 0x0000);
			}
			if (boardX <= 5 && boardY <= 5 && boardX >= 0 && boardY >= 0) {
    1ea4:	e35a0005 	cmp	r10, #5
    1ea8:	d3590005 	cmple	r9, #5
    1eac:	ca000008 	bgt	1ed4 <animate_line+0x2c8>
    1eb0:	e35a0000 	cmp	r10, #0
    1eb4:	a3590000 	cmpge	r9, #0
    1eb8:	ba000005 	blt	1ed4 <animate_line+0x2c8>
				board[boardX + 1][boardY] = color;
    1ebc:	e2899001 	add	r9, r9, #1
    1ec0:	e0899109 	add	r9, r9, r9, lsl #2
    1ec4:	e59d203c 	ldr	r2, [sp, #60]	; 0x3c
    1ec8:	e0823109 	add	r3, r2, r9, lsl #2
    1ecc:	e59d200c 	ldr	r2, [sp, #12]
    1ed0:	e783210a 	str	r2, [r3, r10, lsl #2]
			}
		}
    }
}
    1ed4:	e28dd014 	add	sp, sp, #20
    1ed8:	e8bd8ff0 	pop	{r4, r5, r6, r7, r8, r9, r10, r11, pc}

00001edc <main>:
		}
	}

}

int main(void) {
    1edc:	e92d4ff0 	push	{r4, r5, r6, r7, r8, r9, r10, r11, lr}
    1ee0:	e24dd014 	sub	sp, sp, #20

    byte1        = 0;
    1ee4:	e30f4314 	movw	r4, #62228	; 0xf314
    1ee8:	e3404001 	movt	r4, #1
    1eec:	e3a03000 	mov	r3, #0
    1ef0:	e5c43021 	strb	r3, [r4, #33]	; 0x21
    byte2        = 0;
    1ef4:	e5c43020 	strb	r3, [r4, #32]
    data         = 0; // used to hold PS/2 data
    1ef8:	e5c430ac 	strb	r3, [r4, #172]	; 0xac
    keyPressed   = "U";
    1efc:	e30e3e30 	movw	r3, #60976	; 0xee30
    1f00:	e3403001 	movt	r3, #1
    1f04:	e5c43022 	strb	r3, [r4, #34]	; 0x22

    int x;
    int y;

	//function calls to enable interrupts in ARM and PS/2 keyboard
	disable_A9_interrupts(); // disable interrupts in the A9 processor
    1f08:	ebfff9fd 	bl	704 <disable_A9_interrupts>
	set_A9_IRQ_stack(); // initialize the stack pointer for IRQ mode
    1f0c:	ebfffa91 	bl	958 <set_A9_IRQ_stack>
	config_GIC(); // configure the general interrupt controller
    1f10:	ebfffa0b 	bl	744 <config_GIC>
	config_PS2s(); // configure PS/2 to generate interrupts
    1f14:	ebfffa1e 	bl	794 <config_PS2s>
	config_KEYs(); // configure PS/2 to generate interrupts
    1f18:	ebfffa18 	bl	780 <config_KEYs>

	enable_A9_interrupts(); // enable interrupts in the A9 processor
    1f1c:	ebfff9f5 	bl	6f8 <enable_A9_interrupts>
    /* Read location of the pixel buffer from the pixel buffer controller */
    //pixel_buffer_start = *pixel_ctrl_ptr;
    int N = 4; // have N declared objects
    // board of arrays:

    initializeBoard(board);
    1f20:	e2840048 	add	r0, r4, #72	; 0x48
    1f24:	ebfff8cc 	bl	25c <initializeBoard>
    // }

    //

    /* set front pixel buffer to start of FPGA On-chip memory */
    *(pixel_ctrl_ptr + 1) = 0xC8000000; // first store the address in the
    1f28:	e3035fff 	movw	r5, #16383	; 0x3fff
    1f2c:	e34f5f20 	movt	r5, #65312	; 0xff20
    1f30:	e3a03332 	mov	r3, #-939524096	; 0xc8000000
    1f34:	e5053fdb 	str	r3, [r5, #-4059]	; 0xfffff025
                                        // back buffer
    /* now, swap the front/back buffers, to set the front buffer location */
    wait_for_vsync();
    1f38:	ebfff988 	bl	560 <wait_for_vsync>
    /* initialize a pointer to the pixel buffer, used by drawing functions */
    pixel_buffer_start = *pixel_ctrl_ptr;
    1f3c:	e5153fdf 	ldr	r3, [r5, #-4063]	; 0xfffff021
    1f40:	e584301c 	str	r3, [r4, #28]
    clear_screen(); // pixel_buffer_start points to the pixel buffer
    1f44:	ebfff992 	bl	594 <clear_screen>

    /* set back pixel buffer to start of SDRAM memory */
    *(pixel_ctrl_ptr + 1) = 0xC0000000;
    1f48:	e3a03103 	mov	r3, #-1073741824	; 0xc0000000
    1f4c:	e5053fdb 	str	r3, [r5, #-4059]	; 0xfffff025
    pixel_buffer_start = *(pixel_ctrl_ptr + 1); // we draw on the back buffer
    1f50:	e5153fdb 	ldr	r3, [r5, #-4059]	; 0xfffff025
    1f54:	e584301c 	str	r3, [r4, #28]
		   draw_piece(currX, currY, currDirection, WHITE_U16);
		   wait_for_vsync(); // swap front and back buffers on VGA vertical sync
		   pixel_buffer_start = *(pixel_ctrl_ptr + 1); // new back buffer
		}
		
		while(!reset) {
    1f58:	e1a05004 	mov	r5, r4
			if(checkGameOver()) {
				draw_game_over();
				wait_for_vsync(); // swap front and back buffers on VGA vertical sync
				pixel_buffer_start = *(pixel_ctrl_ptr + 1); // new back buffer
    1f5c:	e303afff 	movw	r10, #16383	; 0x3fff
    1f60:	e34faf20 	movt	r10, #65312	; 0xff20
				clear_screen();
				
			}
		}
		resetGame(reset, board);
    1f64:	e2849048 	add	r9, r4, #72	; 0x48
					// printf("%d", board[row][col]);
					// printf("\n");
					// printf("board position: \n");
					// printf("%d ", row);
					// printf("%d \n", col);
					fill_color(row, col, ORANGE_U16);
    1f68:	e30f3be0 	movw	r3, #64480	; 0xfbe0
    1f6c:	e34f3fff 	movt	r3, #65535	; 0xffff
    1f70:	e58d300c 	str	r3, [sp, #12]
					// printf("%d", board[row][col]);
					// printf("\n");
					// printf("board position: \n");
					// printf("%d ", row);
					// printf("%d \n", col);
					fill_color(row, col, RED_U16);
    1f74:	e3a03b3e 	mov	r3, #63488	; 0xf800
    1f78:	e34f3fff 	movt	r3, #65535	; 0xffff
    1f7c:	e58d3008 	str	r3, [sp, #8]
					currDirection = direction; // this is for the drawing of a square
				}

			}

		   draw_piece(currX, currY, currDirection, WHITE_U16);
    1f80:	e30ebe98 	movw	r11, #61080	; 0xee98
    1f84:	e340b001 	movt	r11, #1
    1f88:	ea00020d 	b	27c4 <main+0x8e8>
    pixel_buffer_start = *(pixel_ctrl_ptr + 1); // we draw on the back buffer
    //clear_screen();
    //coloring a square (testing code for now)
	while(1) {
		while (!checkGameOver()) {
		clear_screen();
    1f8c:	ebfff980 	bl	594 <clear_screen>
		int row = 0;
		int col = 0;
		int direction = 0; // 1: UP, 2: LEFT, 3: DOWN, 4: RIGHT

		//this doesn't want to work:
		for (row = 0; row < ROWS; row++) {
    1f90:	e3a07000 	mov	r7, #0
    1f94:	ea000028 	b	203c <main+0x160>
			for (col = 0; col < COLS; col++) {
				if (board[row][col] == RED) {
    1f98:	e5b63004 	ldr	r3, [r6, #4]!
    1f9c:	e3530001 	cmp	r3, #1
    1fa0:	1a000004 	bne	1fb8 <main+0xdc>
					// printf("%d", board[row][col]);
					// printf("\n");
					// printf("board position: \n");
					// printf("%d ", row);
					// printf("%d \n", col);
					fill_color(row, col, RED_U16);
    1fa4:	e1a00007 	mov	r0, r7
    1fa8:	e1a01004 	mov	r1, r4
    1fac:	e59d2008 	ldr	r2, [sp, #8]
    1fb0:	ebfff951 	bl	4fc <fill_color>
    1fb4:	ea00001a 	b	2024 <main+0x148>
				}

				else if (board[row][col] == GREEN) {
    1fb8:	e3530002 	cmp	r3, #2
    1fbc:	1a000004 	bne	1fd4 <main+0xf8>
					// printf("%d", board[row][col]);
					// printf("\n");
					// printf("board position: \n");
					// printf("%d ", row);
					// printf("%d \n", col);
					fill_color(row, col, GREEN_U16);
    1fc0:	e1a00007 	mov	r0, r7
    1fc4:	e1a01004 	mov	r1, r4
    1fc8:	e1a02008 	mov	r2, r8
    1fcc:	ebfff94a 	bl	4fc <fill_color>
    1fd0:	ea000013 	b	2024 <main+0x148>
				}

				else if (board[row][col] == BLUE) {
    1fd4:	e3530003 	cmp	r3, #3
    1fd8:	1a000004 	bne	1ff0 <main+0x114>
					// printf("%d", board[row][col]);
					// printf("\n");
					// printf("board position: \n");
					// printf("%d ", row);
					// printf("%d \n", col);
					fill_color(row, col, BLUE_U16);
    1fdc:	e1a00007 	mov	r0, r7
    1fe0:	e1a01004 	mov	r1, r4
    1fe4:	e3a0201f 	mov	r2, #31
    1fe8:	ebfff943 	bl	4fc <fill_color>
    1fec:	ea00000c 	b	2024 <main+0x148>
				}

				else if (board[row][col] == YELLOW) {
    1ff0:	e3530004 	cmp	r3, #4
    1ff4:	1a000004 	bne	200c <main+0x130>
					// printf("%d", board[row][col]);
					// printf("\n");
					// printf("board position: \n");
					// printf("%d ", row);
					// printf("%d \n", col);
					fill_color(row, col, YELLOW_U16);
    1ff8:	e1a00007 	mov	r0, r7
    1ffc:	e1a01004 	mov	r1, r4
    2000:	e3e0201f 	mvn	r2, #31
    2004:	ebfff93c 	bl	4fc <fill_color>
    2008:	ea000005 	b	2024 <main+0x148>
				}

				else if (board[row][col] == ORANGE) {
    200c:	e3530005 	cmp	r3, #5
    2010:	1a000003 	bne	2024 <main+0x148>
					// printf("%d", board[row][col]);
					// printf("\n");
					// printf("board position: \n");
					// printf("%d ", row);
					// printf("%d \n", col);
					fill_color(row, col, ORANGE_U16);
    2014:	e1a00007 	mov	r0, r7
    2018:	e1a01004 	mov	r1, r4
    201c:	e59d200c 	ldr	r2, [sp, #12]
    2020:	ebfff935 	bl	4fc <fill_color>
		int col = 0;
		int direction = 0; // 1: UP, 2: LEFT, 3: DOWN, 4: RIGHT

		//this doesn't want to work:
		for (row = 0; row < ROWS; row++) {
			for (col = 0; col < COLS; col++) {
    2024:	e2844001 	add	r4, r4, #1
    2028:	e3540005 	cmp	r4, #5
    202c:	1affffd9 	bne	1f98 <main+0xbc>
		int row = 0;
		int col = 0;
		int direction = 0; // 1: UP, 2: LEFT, 3: DOWN, 4: RIGHT

		//this doesn't want to work:
		for (row = 0; row < ROWS; row++) {
    2030:	e2877001 	add	r7, r7, #1
    2034:	e3570005 	cmp	r7, #5
    2038:	0a000005 	beq	2054 <main+0x178>
		}
	}

}

int main(void) {
    203c:	e0876107 	add	r6, r7, r7, lsl #2
    2040:	e0896106 	add	r6, r9, r6, lsl #2
    2044:	e2466004 	sub	r6, r6, #4
    2048:	e3a04000 	mov	r4, #0
					// printf("%d", board[row][col]);
					// printf("\n");
					// printf("board position: \n");
					// printf("%d ", row);
					// printf("%d \n", col);
					fill_color(row, col, GREEN_U16);
    204c:	e3a08e7e 	mov	r8, #2016	; 0x7e0
    2050:	eaffffd0 	b	1f98 <main+0xbc>

			// Background
			// Horizontal Line

			// UNCOMMENT THE IF STATMENT TO TEST THIS
			draw_line(64, 64, 0, 239, WHITE_U16);
    2054:	e3e04000 	mvn	r4, #0
    2058:	e58d4000 	str	r4, [sp]
    205c:	e3a00040 	mov	r0, #64	; 0x40
    2060:	e1a01000 	mov	r1, r0
    2064:	e3a02000 	mov	r2, #0
    2068:	e3a030ef 	mov	r3, #239	; 0xef
    206c:	ebfff95d 	bl	5e8 <draw_line>
			draw_line(128, 128, 0, 239, WHITE_U16);
    2070:	e58d4000 	str	r4, [sp]
    2074:	e3a00080 	mov	r0, #128	; 0x80
    2078:	e1a01000 	mov	r1, r0
    207c:	e3a02000 	mov	r2, #0
    2080:	e3a030ef 	mov	r3, #239	; 0xef
    2084:	ebfff957 	bl	5e8 <draw_line>
			draw_line(192, 192, 0, 239, WHITE_U16);
    2088:	e58d4000 	str	r4, [sp]
    208c:	e3a000c0 	mov	r0, #192	; 0xc0
    2090:	e1a01000 	mov	r1, r0
    2094:	e3a02000 	mov	r2, #0
    2098:	e3a030ef 	mov	r3, #239	; 0xef
    209c:	ebfff951 	bl	5e8 <draw_line>
			draw_line(256, 256, 0, 239, WHITE_U16);
    20a0:	e58d4000 	str	r4, [sp]
    20a4:	e3a00c01 	mov	r0, #256	; 0x100
    20a8:	e1a01000 	mov	r1, r0
    20ac:	e3a02000 	mov	r2, #0
    20b0:	e3a030ef 	mov	r3, #239	; 0xef
    20b4:	ebfff94b 	bl	5e8 <draw_line>
			//Vertical Line
			draw_line(0, 319, 48, 48, WHITE_U16);
    20b8:	e58d4000 	str	r4, [sp]
    20bc:	e3a00000 	mov	r0, #0
    20c0:	e300113f 	movw	r1, #319	; 0x13f
    20c4:	e3a02030 	mov	r2, #48	; 0x30
    20c8:	e1a03002 	mov	r3, r2
    20cc:	ebfff945 	bl	5e8 <draw_line>
			draw_line(0, 319, 96, 96, WHITE_U16);
    20d0:	e58d4000 	str	r4, [sp]
    20d4:	e3a00000 	mov	r0, #0
    20d8:	e300113f 	movw	r1, #319	; 0x13f
    20dc:	e3a02060 	mov	r2, #96	; 0x60
    20e0:	e1a03002 	mov	r3, r2
    20e4:	ebfff93f 	bl	5e8 <draw_line>
			draw_line(0, 319, 144, 144, WHITE_U16);
    20e8:	e58d4000 	str	r4, [sp]
    20ec:	e3a00000 	mov	r0, #0
    20f0:	e300113f 	movw	r1, #319	; 0x13f
    20f4:	e3a02090 	mov	r2, #144	; 0x90
    20f8:	e1a03002 	mov	r3, r2
    20fc:	ebfff939 	bl	5e8 <draw_line>
			draw_line(0, 319, 192, 192, WHITE_U16);
    2100:	e58d4000 	str	r4, [sp]
    2104:	e3a00000 	mov	r0, #0
    2108:	e300113f 	movw	r1, #319	; 0x13f
    210c:	e3a020c0 	mov	r2, #192	; 0xc0
    2110:	e1a03002 	mov	r3, r2
    2114:	ebfff933 	bl	5e8 <draw_line>
			 //     // *RLEDs = LED;
			 // }


			// first select the color
			if (keyPressed == '1') {
    2118:	e5d53022 	ldrb	r3, [r5, #34]	; 0x22
    211c:	e3530031 	cmp	r3, #49	; 0x31
				keyRed = true;
    2120:	03a03001 	moveq	r3, #1
    2124:	05c530ad 	strbeq	r3, [r5, #173]	; 0xad
			 //     // *RLEDs = LED;
			 // }


			// first select the color
			if (keyPressed == '1') {
    2128:	0a000015 	beq	2184 <main+0x2a8>
				keyRed = true;
			}

			else if (keyPressed == '2') {
    212c:	e5d53022 	ldrb	r3, [r5, #34]	; 0x22
    2130:	e3530032 	cmp	r3, #50	; 0x32
				keyGreen = true;
    2134:	03a03001 	moveq	r3, #1
    2138:	05c530ae 	strbeq	r3, [r5, #174]	; 0xae
			// first select the color
			if (keyPressed == '1') {
				keyRed = true;
			}

			else if (keyPressed == '2') {
    213c:	0a00000d 	beq	2178 <main+0x29c>
				keyGreen = true;
			}

			else if (keyPressed == '3') {
    2140:	e5d53022 	ldrb	r3, [r5, #34]	; 0x22
    2144:	e3530033 	cmp	r3, #51	; 0x33
				keyBlue = true;
    2148:	03a03001 	moveq	r3, #1
    214c:	05c530af 	strbeq	r3, [r5, #175]	; 0xaf

			else if (keyPressed == '2') {
				keyGreen = true;
			}

			else if (keyPressed == '3') {
    2150:	0a000008 	beq	2178 <main+0x29c>
				keyBlue = true;
			}

			else if (keyPressed == '4') {
    2154:	e5d53022 	ldrb	r3, [r5, #34]	; 0x22
    2158:	e3530034 	cmp	r3, #52	; 0x34
				keyYellow = true;
    215c:	03a03001 	moveq	r3, #1
    2160:	05c530b0 	strbeq	r3, [r5, #176]	; 0xb0

			else if (keyPressed == '3') {
				keyBlue = true;
			}

			else if (keyPressed == '4') {
    2164:	0a000003 	beq	2178 <main+0x29c>
				keyYellow = true;
			}

			else if (keyPressed == '5') {
    2168:	e5d53022 	ldrb	r3, [r5, #34]	; 0x22
    216c:	e3530035 	cmp	r3, #53	; 0x35
				keyOrange = true;
    2170:	03a03001 	moveq	r3, #1
    2174:	05c530b1 	strbeq	r3, [r5, #177]	; 0xb1
			}
			// actual key presses
			if (keyRed && (keyPressed == 'W' || keyPressed == 'A' || keyPressed == 'S' || keyPressed == 'D')) {
    2178:	e5d530ad 	ldrb	r3, [r5, #173]	; 0xad
    217c:	e3530000 	cmp	r3, #0
    2180:	0a00004b 	beq	22b4 <main+0x3d8>
    2184:	e5d53022 	ldrb	r3, [r5, #34]	; 0x22
    2188:	e3530057 	cmp	r3, #87	; 0x57
    218c:	0a000008 	beq	21b4 <main+0x2d8>
    2190:	e5d53022 	ldrb	r3, [r5, #34]	; 0x22
    2194:	e3530041 	cmp	r3, #65	; 0x41
    2198:	0a000005 	beq	21b4 <main+0x2d8>
    219c:	e5d53022 	ldrb	r3, [r5, #34]	; 0x22
    21a0:	e3530053 	cmp	r3, #83	; 0x53
    21a4:	0a000002 	beq	21b4 <main+0x2d8>
    21a8:	e5d53022 	ldrb	r3, [r5, #34]	; 0x22
    21ac:	e3530044 	cmp	r3, #68	; 0x44
    21b0:	1a00003f 	bne	22b4 <main+0x3d8>
				// turn off all other flags
				keyGreen = false;
    21b4:	e3a03000 	mov	r3, #0
    21b8:	e5c530ae 	strb	r3, [r5, #174]	; 0xae
				keyBlue = false;
    21bc:	e5c530af 	strb	r3, [r5, #175]	; 0xaf
				keyYellow = false;
    21c0:	e5c530b0 	strb	r3, [r5, #176]	; 0xb0
				keyOrange = false;
    21c4:	e5c530b1 	strb	r3, [r5, #177]	; 0xb1

				// HARDCODED FOR NOW:
				x = redCurrentX;
    21c8:	e595002c 	ldr	r0, [r5, #44]	; 0x2c
				y = redCurrentY;
    21cc:	e5951028 	ldr	r1, [r5, #40]	; 0x28

				currX = x;
    21d0:	e58b0018 	str	r0, [r11, #24]
				currY = y;
    21d4:	e58b101c 	str	r1, [r11, #28]

				// animate the line:
				if (keyPressed == 'W') {
    21d8:	e5d53022 	ldrb	r3, [r5, #34]	; 0x22
    21dc:	e3530057 	cmp	r3, #87	; 0x57
    21e0:	1a000009 	bne	220c <main+0x330>
					direction  = 1;
					animate_line(x, y, direction, RED_U16, RED, board);
    21e4:	e3a04001 	mov	r4, #1
    21e8:	e58d4000 	str	r4, [sp]
    21ec:	e58d9004 	str	r9, [sp, #4]
    21f0:	e1a02004 	mov	r2, r4
    21f4:	e59d3008 	ldr	r3, [sp, #8]
    21f8:	ebfffe83 	bl	1c0c <animate_line>
					keyRed = false; // turn off the flag
    21fc:	e3a03000 	mov	r3, #0
    2200:	e5c530ad 	strb	r3, [r5, #173]	; 0xad
					currDirection = direction; // this is for the drawing of a square
    2204:	e58b4020 	str	r4, [r11, #32]
    2208:	ea000165 	b	27a4 <main+0x8c8>
				} else if (keyPressed == 'A') {
    220c:	e5d53022 	ldrb	r3, [r5, #34]	; 0x22
    2210:	e3530041 	cmp	r3, #65	; 0x41
    2214:	1a00000a 	bne	2244 <main+0x368>
					direction  = 2;
					animate_line(x, y, direction, RED_U16, RED, board);
    2218:	e3a03001 	mov	r3, #1
    221c:	e58d3000 	str	r3, [sp]
    2220:	e58d9004 	str	r9, [sp, #4]
    2224:	e3a02002 	mov	r2, #2
    2228:	e59d3008 	ldr	r3, [sp, #8]
    222c:	ebfffe76 	bl	1c0c <animate_line>
					keyRed = false; // turn off the flag
    2230:	e3a03000 	mov	r3, #0
    2234:	e5c530ad 	strb	r3, [r5, #173]	; 0xad
					currDirection = direction; // this is for the drawing of a square
    2238:	e3a03002 	mov	r3, #2
    223c:	e58b3020 	str	r3, [r11, #32]
    2240:	ea000157 	b	27a4 <main+0x8c8>
				} else if (keyPressed == 'S') {
    2244:	e5d53022 	ldrb	r3, [r5, #34]	; 0x22
    2248:	e3530053 	cmp	r3, #83	; 0x53
    224c:	1a00000a 	bne	227c <main+0x3a0>
					direction  = 3;
					animate_line(x, y, direction, RED_U16, RED, board);
    2250:	e3a03001 	mov	r3, #1
    2254:	e58d3000 	str	r3, [sp]
    2258:	e58d9004 	str	r9, [sp, #4]
    225c:	e3a02003 	mov	r2, #3
    2260:	e59d3008 	ldr	r3, [sp, #8]
    2264:	ebfffe68 	bl	1c0c <animate_line>
					keyRed = false; // turn off the flag
    2268:	e3a03000 	mov	r3, #0
    226c:	e5c530ad 	strb	r3, [r5, #173]	; 0xad
					currDirection = direction; // this is for the drawing of a square
    2270:	e3a03003 	mov	r3, #3
    2274:	e58b3020 	str	r3, [r11, #32]
    2278:	ea000149 	b	27a4 <main+0x8c8>
				} else if (keyPressed == 'D') {
    227c:	e5d53022 	ldrb	r3, [r5, #34]	; 0x22
    2280:	e3530044 	cmp	r3, #68	; 0x44
    2284:	1a000146 	bne	27a4 <main+0x8c8>
					direction  = 4;
					animate_line(x, y, direction, RED_U16, RED, board);
    2288:	e3a03001 	mov	r3, #1
    228c:	e58d3000 	str	r3, [sp]
    2290:	e58d9004 	str	r9, [sp, #4]
    2294:	e3a02004 	mov	r2, #4
    2298:	e59d3008 	ldr	r3, [sp, #8]
    229c:	ebfffe5a 	bl	1c0c <animate_line>
					keyRed = false; // turn off the
    22a0:	e3a03000 	mov	r3, #0
    22a4:	e5c530ad 	strb	r3, [r5, #173]	; 0xad
					currDirection = direction; // this is for the drawing of a square
    22a8:	e3a03004 	mov	r3, #4
    22ac:	e58b3020 	str	r3, [r11, #32]
    22b0:	ea00013b 	b	27a4 <main+0x8c8>
				}

	//            draw_piece(x, y, WHITE_U16);

			} else if (keyGreen && (keyPressed == 'W' || keyPressed == 'A' || keyPressed == 'S' || keyPressed == 'D')) {
    22b4:	e5d530ae 	ldrb	r3, [r5, #174]	; 0xae
    22b8:	e3530000 	cmp	r3, #0
    22bc:	0a00004b 	beq	23f0 <main+0x514>
    22c0:	e5d53022 	ldrb	r3, [r5, #34]	; 0x22
    22c4:	e3530057 	cmp	r3, #87	; 0x57
    22c8:	0a000008 	beq	22f0 <main+0x414>
    22cc:	e5d53022 	ldrb	r3, [r5, #34]	; 0x22
    22d0:	e3530041 	cmp	r3, #65	; 0x41
    22d4:	0a000005 	beq	22f0 <main+0x414>
    22d8:	e5d53022 	ldrb	r3, [r5, #34]	; 0x22
    22dc:	e3530053 	cmp	r3, #83	; 0x53
    22e0:	0a000002 	beq	22f0 <main+0x414>
    22e4:	e5d53022 	ldrb	r3, [r5, #34]	; 0x22
    22e8:	e3530044 	cmp	r3, #68	; 0x44
    22ec:	1a00003f 	bne	23f0 <main+0x514>

				keyRed = false;
    22f0:	e3a03000 	mov	r3, #0
    22f4:	e5c530ad 	strb	r3, [r5, #173]	; 0xad
				keyBlue = false;
    22f8:	e5c530af 	strb	r3, [r5, #175]	; 0xaf
				keyYellow = false;
    22fc:	e5c530b0 	strb	r3, [r5, #176]	; 0xb0
				keyOrange = false;
    2300:	e5c530b1 	strb	r3, [r5, #177]	; 0xb1

				x =  greenCurrentX;
    2304:	e59b0000 	ldr	r0, [r11]
				y =  greenCurrentY;
    2308:	e5951034 	ldr	r1, [r5, #52]	; 0x34

				// for drawing the circles
				currX = x;
    230c:	e58b0018 	str	r0, [r11, #24]
				currY = y;
    2310:	e58b101c 	str	r1, [r11, #28]

				//anime the lines
				// animate the line:
				if (keyPressed == 'W') {
    2314:	e5d53022 	ldrb	r3, [r5, #34]	; 0x22
    2318:	e3530057 	cmp	r3, #87	; 0x57
    231c:	1a00000a 	bne	234c <main+0x470>
					direction  = 1;
					animate_line(x, y, direction, GREEN_U16, GREEN, board);
    2320:	e3a03002 	mov	r3, #2
    2324:	e58d3000 	str	r3, [sp]
    2328:	e58d9004 	str	r9, [sp, #4]
    232c:	e3a02001 	mov	r2, #1
    2330:	e3a03e7e 	mov	r3, #2016	; 0x7e0
    2334:	ebfffe34 	bl	1c0c <animate_line>
					keyGreen = false; // turn off the flag
    2338:	e3a03000 	mov	r3, #0
    233c:	e5c530ae 	strb	r3, [r5, #174]	; 0xae
					currDirection = direction; // this is for the drawing of a square
    2340:	e3a03001 	mov	r3, #1
    2344:	e58b3020 	str	r3, [r11, #32]
    2348:	ea000115 	b	27a4 <main+0x8c8>
				} else if (keyPressed == 'A') {
    234c:	e5d53022 	ldrb	r3, [r5, #34]	; 0x22
    2350:	e3530041 	cmp	r3, #65	; 0x41
    2354:	1a000009 	bne	2380 <main+0x4a4>
					direction  = 2;
					animate_line(x, y, direction, GREEN_U16, GREEN, board);
    2358:	e3a04002 	mov	r4, #2
    235c:	e58d4000 	str	r4, [sp]
    2360:	e58d9004 	str	r9, [sp, #4]
    2364:	e1a02004 	mov	r2, r4
    2368:	e3a03e7e 	mov	r3, #2016	; 0x7e0
    236c:	ebfffe26 	bl	1c0c <animate_line>
					keyGreen = false; // turn off the flag
    2370:	e3a03000 	mov	r3, #0
    2374:	e5c530ae 	strb	r3, [r5, #174]	; 0xae
					currDirection = direction; // this is for the drawing of a square
    2378:	e58b4020 	str	r4, [r11, #32]
    237c:	ea000108 	b	27a4 <main+0x8c8>
				} else if (keyPressed == 'S') {
    2380:	e5d53022 	ldrb	r3, [r5, #34]	; 0x22
    2384:	e3530053 	cmp	r3, #83	; 0x53
    2388:	1a00000a 	bne	23b8 <main+0x4dc>
					direction  = 3;
					animate_line(x, y, direction, GREEN_U16, GREEN, board);
    238c:	e3a03002 	mov	r3, #2
    2390:	e58d3000 	str	r3, [sp]
    2394:	e58d9004 	str	r9, [sp, #4]
    2398:	e3a02003 	mov	r2, #3
    239c:	e3a03e7e 	mov	r3, #2016	; 0x7e0
    23a0:	ebfffe19 	bl	1c0c <animate_line>
					keyGreen = false; // turn off the flag
    23a4:	e3a03000 	mov	r3, #0
    23a8:	e5c530ae 	strb	r3, [r5, #174]	; 0xae
					currDirection = direction; // this is for the drawing of a square
    23ac:	e3a03003 	mov	r3, #3
    23b0:	e58b3020 	str	r3, [r11, #32]
    23b4:	ea0000fa 	b	27a4 <main+0x8c8>
				} else if (keyPressed == 'D') {
    23b8:	e5d53022 	ldrb	r3, [r5, #34]	; 0x22
    23bc:	e3530044 	cmp	r3, #68	; 0x44
    23c0:	1a0000f7 	bne	27a4 <main+0x8c8>
					direction  = 4;
					animate_line(x, y, direction, GREEN_U16, GREEN, board);
    23c4:	e3a03002 	mov	r3, #2
    23c8:	e58d3000 	str	r3, [sp]
    23cc:	e58d9004 	str	r9, [sp, #4]
    23d0:	e3a02004 	mov	r2, #4
    23d4:	e3a03e7e 	mov	r3, #2016	; 0x7e0
    23d8:	ebfffe0b 	bl	1c0c <animate_line>
					keyGreen = false; // turn off the flag
    23dc:	e3a03000 	mov	r3, #0
    23e0:	e5c530ae 	strb	r3, [r5, #174]	; 0xae
					currDirection = direction; // this is for the drawing of a square
    23e4:	e3a03004 	mov	r3, #4
    23e8:	e58b3020 	str	r3, [r11, #32]
    23ec:	ea0000ec 	b	27a4 <main+0x8c8>
				}

	//         draw_piece(x, y, WHITE_U16);

			} else if (keyBlue && (keyPressed == 'W' || keyPressed == 'A' || keyPressed == 'S' || keyPressed == 'D')) {
    23f0:	e5d530af 	ldrb	r3, [r5, #175]	; 0xaf
    23f4:	e3530000 	cmp	r3, #0
    23f8:	0a00004b 	beq	252c <main+0x650>
    23fc:	e5d53022 	ldrb	r3, [r5, #34]	; 0x22
    2400:	e3530057 	cmp	r3, #87	; 0x57
    2404:	0a000008 	beq	242c <main+0x550>
    2408:	e5d53022 	ldrb	r3, [r5, #34]	; 0x22
    240c:	e3530041 	cmp	r3, #65	; 0x41
    2410:	0a000005 	beq	242c <main+0x550>
    2414:	e5d53022 	ldrb	r3, [r5, #34]	; 0x22
    2418:	e3530053 	cmp	r3, #83	; 0x53
    241c:	0a000002 	beq	242c <main+0x550>
    2420:	e5d53022 	ldrb	r3, [r5, #34]	; 0x22
    2424:	e3530044 	cmp	r3, #68	; 0x44
    2428:	1a00003f 	bne	252c <main+0x650>

				keyRed = false;
    242c:	e3a03000 	mov	r3, #0
    2430:	e5c530ad 	strb	r3, [r5, #173]	; 0xad
				keyGreen = false;
    2434:	e5c530ae 	strb	r3, [r5, #174]	; 0xae
				keyYellow = false;
    2438:	e5c530b0 	strb	r3, [r5, #176]	; 0xb0
				keyOrange = false;
    243c:	e5c530b1 	strb	r3, [r5, #177]	; 0xb1

				x = blueCurrentX;
    2440:	e59b0008 	ldr	r0, [r11, #8]
				y = blueCurrentY;
    2444:	e59b1004 	ldr	r1, [r11, #4]

				// for drawing the circles
				currX = x;
    2448:	e58b0018 	str	r0, [r11, #24]
				currY = y;
    244c:	e58b101c 	str	r1, [r11, #28]

				// animate the line:
				if (keyPressed == 'W') {
    2450:	e5d53022 	ldrb	r3, [r5, #34]	; 0x22
    2454:	e3530057 	cmp	r3, #87	; 0x57
    2458:	1a00000a 	bne	2488 <main+0x5ac>
					direction  = 1;
					animate_line(x, y, direction, BLUE_U16, BLUE, board);
    245c:	e3a03003 	mov	r3, #3
    2460:	e58d3000 	str	r3, [sp]
    2464:	e58d9004 	str	r9, [sp, #4]
    2468:	e3a02001 	mov	r2, #1
    246c:	e3a0301f 	mov	r3, #31
    2470:	ebfffde5 	bl	1c0c <animate_line>
					keyBlue = false; // turn off the flag
    2474:	e3a03000 	mov	r3, #0
    2478:	e5c530af 	strb	r3, [r5, #175]	; 0xaf
					currDirection = direction; // this is for the drawing of a square
    247c:	e3a03001 	mov	r3, #1
    2480:	e58b3020 	str	r3, [r11, #32]
    2484:	ea0000c6 	b	27a4 <main+0x8c8>
				} else if (keyPressed == 'A') {
    2488:	e5d53022 	ldrb	r3, [r5, #34]	; 0x22
    248c:	e3530041 	cmp	r3, #65	; 0x41
    2490:	1a00000a 	bne	24c0 <main+0x5e4>
					direction  = 2;
					animate_line(x, y, direction, BLUE_U16, BLUE, board);
    2494:	e3a03003 	mov	r3, #3
    2498:	e58d3000 	str	r3, [sp]
    249c:	e58d9004 	str	r9, [sp, #4]
    24a0:	e3a02002 	mov	r2, #2
    24a4:	e3a0301f 	mov	r3, #31
    24a8:	ebfffdd7 	bl	1c0c <animate_line>
					keyBlue = false; // turn off the flag
    24ac:	e3a03000 	mov	r3, #0
    24b0:	e5c530af 	strb	r3, [r5, #175]	; 0xaf
					currDirection = direction; // this is for the drawing of a square
    24b4:	e3a03002 	mov	r3, #2
    24b8:	e58b3020 	str	r3, [r11, #32]
    24bc:	ea0000b8 	b	27a4 <main+0x8c8>
				} else if (keyPressed == 'S') {
    24c0:	e5d53022 	ldrb	r3, [r5, #34]	; 0x22
    24c4:	e3530053 	cmp	r3, #83	; 0x53
    24c8:	1a000009 	bne	24f4 <main+0x618>
					direction  = 3;
					animate_line(x, y, direction, BLUE_U16, BLUE, board);
    24cc:	e3a04003 	mov	r4, #3
    24d0:	e58d4000 	str	r4, [sp]
    24d4:	e58d9004 	str	r9, [sp, #4]
    24d8:	e1a02004 	mov	r2, r4
    24dc:	e3a0301f 	mov	r3, #31
    24e0:	ebfffdc9 	bl	1c0c <animate_line>
					keyBlue = false; // turn off the flag
    24e4:	e3a03000 	mov	r3, #0
    24e8:	e5c530af 	strb	r3, [r5, #175]	; 0xaf
					currDirection = direction; // this is for the drawing of a square
    24ec:	e58b4020 	str	r4, [r11, #32]
    24f0:	ea0000ab 	b	27a4 <main+0x8c8>
				} else if (keyPressed == 'D') {
    24f4:	e5d53022 	ldrb	r3, [r5, #34]	; 0x22
    24f8:	e3530044 	cmp	r3, #68	; 0x44
    24fc:	1a0000a8 	bne	27a4 <main+0x8c8>
					direction  = 4;
					animate_line(x, y, direction, BLUE_U16, BLUE, board);
    2500:	e3a03003 	mov	r3, #3
    2504:	e58d3000 	str	r3, [sp]
    2508:	e58d9004 	str	r9, [sp, #4]
    250c:	e3a02004 	mov	r2, #4
    2510:	e3a0301f 	mov	r3, #31
    2514:	ebfffdbc 	bl	1c0c <animate_line>
					keyBlue = false; // turn off the flag
    2518:	e3a03000 	mov	r3, #0
    251c:	e5c530af 	strb	r3, [r5, #175]	; 0xaf
					currDirection = direction; // this is for the drawing of a square
    2520:	e3a03004 	mov	r3, #4
    2524:	e58b3020 	str	r3, [r11, #32]
    2528:	ea00009d 	b	27a4 <main+0x8c8>
				}

	//            draw_piece(x, y, WHITE_U16);

			} else if (keyYellow && (keyPressed == 'W' || keyPressed == 'A' || keyPressed == 'S' || keyPressed == 'D')) {
    252c:	e5d530b0 	ldrb	r3, [r5, #176]	; 0xb0
    2530:	e3530000 	cmp	r3, #0
    2534:	0a00004b 	beq	2668 <main+0x78c>
    2538:	e5d53022 	ldrb	r3, [r5, #34]	; 0x22
    253c:	e3530057 	cmp	r3, #87	; 0x57
    2540:	0a000008 	beq	2568 <main+0x68c>
    2544:	e5d53022 	ldrb	r3, [r5, #34]	; 0x22
    2548:	e3530041 	cmp	r3, #65	; 0x41
    254c:	0a000005 	beq	2568 <main+0x68c>
    2550:	e5d53022 	ldrb	r3, [r5, #34]	; 0x22
    2554:	e3530053 	cmp	r3, #83	; 0x53
    2558:	0a000002 	beq	2568 <main+0x68c>
    255c:	e5d53022 	ldrb	r3, [r5, #34]	; 0x22
    2560:	e3530044 	cmp	r3, #68	; 0x44
    2564:	1a00003f 	bne	2668 <main+0x78c>

				keyRed = false;
    2568:	e3a03000 	mov	r3, #0
    256c:	e5c530ad 	strb	r3, [r5, #173]	; 0xad
				keyGreen = false;
    2570:	e5c530ae 	strb	r3, [r5, #174]	; 0xae
				keyBlue = false;
    2574:	e5c530af 	strb	r3, [r5, #175]	; 0xaf
				keyOrange = false;
    2578:	e5c530b1 	strb	r3, [r5, #177]	; 0xb1

				x = yellowCurrentX;
    257c:	e59b000c 	ldr	r0, [r11, #12]
				y = yellowCurrentY;
    2580:	e5951040 	ldr	r1, [r5, #64]	; 0x40

				// for drawing the circles
				currX = x;
    2584:	e58b0018 	str	r0, [r11, #24]
				currY = y;
    2588:	e58b101c 	str	r1, [r11, #28]

				// animate the line:
				if (keyPressed == 'W') {
    258c:	e5d53022 	ldrb	r3, [r5, #34]	; 0x22
    2590:	e3530057 	cmp	r3, #87	; 0x57
    2594:	1a00000a 	bne	25c4 <main+0x6e8>
					direction  = 1;
					animate_line(x, y, direction, YELLOW_U16, YELLOW, board);
    2598:	e3a03004 	mov	r3, #4
    259c:	e58d3000 	str	r3, [sp]
    25a0:	e58d9004 	str	r9, [sp, #4]
    25a4:	e3a02001 	mov	r2, #1
    25a8:	e3e0301f 	mvn	r3, #31
    25ac:	ebfffd96 	bl	1c0c <animate_line>
					keyYellow = false;
    25b0:	e3a03000 	mov	r3, #0
    25b4:	e5c530b0 	strb	r3, [r5, #176]	; 0xb0
					currDirection = direction; // this is for the drawing of a square
    25b8:	e3a03001 	mov	r3, #1
    25bc:	e58b3020 	str	r3, [r11, #32]
    25c0:	ea000077 	b	27a4 <main+0x8c8>
				} else if (keyPressed == 'A') {
    25c4:	e5d53022 	ldrb	r3, [r5, #34]	; 0x22
    25c8:	e3530041 	cmp	r3, #65	; 0x41
    25cc:	1a00000a 	bne	25fc <main+0x720>
					direction  = 2;
					animate_line(x, y, direction,  YELLOW_U16, YELLOW, board);
    25d0:	e3a03004 	mov	r3, #4
    25d4:	e58d3000 	str	r3, [sp]
    25d8:	e58d9004 	str	r9, [sp, #4]
    25dc:	e3a02002 	mov	r2, #2
    25e0:	e3e0301f 	mvn	r3, #31
    25e4:	ebfffd88 	bl	1c0c <animate_line>
					keyYellow = false;
    25e8:	e3a03000 	mov	r3, #0
    25ec:	e5c530b0 	strb	r3, [r5, #176]	; 0xb0
					currDirection = direction; // this is for the drawing of a square
    25f0:	e3a03002 	mov	r3, #2
    25f4:	e58b3020 	str	r3, [r11, #32]
    25f8:	ea000069 	b	27a4 <main+0x8c8>
				} else if (keyPressed == 'S') {
    25fc:	e5d53022 	ldrb	r3, [r5, #34]	; 0x22
    2600:	e3530053 	cmp	r3, #83	; 0x53
    2604:	1a00000a 	bne	2634 <main+0x758>
					direction  = 3;
					animate_line(x, y, direction,  YELLOW_U16, YELLOW,board);
    2608:	e3a03004 	mov	r3, #4
    260c:	e58d3000 	str	r3, [sp]
    2610:	e58d9004 	str	r9, [sp, #4]
    2614:	e3a02003 	mov	r2, #3
    2618:	e3e0301f 	mvn	r3, #31
    261c:	ebfffd7a 	bl	1c0c <animate_line>
					keyYellow = false;
    2620:	e3a03000 	mov	r3, #0
    2624:	e5c530b0 	strb	r3, [r5, #176]	; 0xb0
					currDirection = direction; // this is for the drawing of a square
    2628:	e3a03003 	mov	r3, #3
    262c:	e58b3020 	str	r3, [r11, #32]
    2630:	ea00005b 	b	27a4 <main+0x8c8>
				} else if (keyPressed == 'D') {
    2634:	e5d53022 	ldrb	r3, [r5, #34]	; 0x22
    2638:	e3530044 	cmp	r3, #68	; 0x44
    263c:	1a000058 	bne	27a4 <main+0x8c8>
					direction  = 4;
					animate_line(x, y, direction,  YELLOW_U16,YELLOW, board);
    2640:	e3a04004 	mov	r4, #4
    2644:	e58d4000 	str	r4, [sp]
    2648:	e58d9004 	str	r9, [sp, #4]
    264c:	e1a02004 	mov	r2, r4
    2650:	e3e0301f 	mvn	r3, #31
    2654:	ebfffd6c 	bl	1c0c <animate_line>
					keyYellow = false;
    2658:	e3a03000 	mov	r3, #0
    265c:	e5c530b0 	strb	r3, [r5, #176]	; 0xb0
					currDirection = direction; // this is for the drawing of a square
    2660:	e58b4020 	str	r4, [r11, #32]
    2664:	ea00004e 	b	27a4 <main+0x8c8>
				}

	//            draw_piece(x, y, WHITE_U16);

			} else if (keyOrange && (keyPressed == 'W' || keyPressed == 'A' || keyPressed == 'S' || keyPressed == 'D')) {
    2668:	e5d530b1 	ldrb	r3, [r5, #177]	; 0xb1
    266c:	e3530000 	cmp	r3, #0
    2670:	0a00004b 	beq	27a4 <main+0x8c8>
    2674:	e5d53022 	ldrb	r3, [r5, #34]	; 0x22
    2678:	e3530057 	cmp	r3, #87	; 0x57
    267c:	0a000008 	beq	26a4 <main+0x7c8>
    2680:	e5d53022 	ldrb	r3, [r5, #34]	; 0x22
    2684:	e3530041 	cmp	r3, #65	; 0x41
    2688:	0a000005 	beq	26a4 <main+0x7c8>
    268c:	e5d53022 	ldrb	r3, [r5, #34]	; 0x22
    2690:	e3530053 	cmp	r3, #83	; 0x53
    2694:	0a000002 	beq	26a4 <main+0x7c8>
    2698:	e5d53022 	ldrb	r3, [r5, #34]	; 0x22
    269c:	e3530044 	cmp	r3, #68	; 0x44
    26a0:	1a00003f 	bne	27a4 <main+0x8c8>

				keyRed = false;
    26a4:	e3a03000 	mov	r3, #0
    26a8:	e5c530ad 	strb	r3, [r5, #173]	; 0xad
				keyGreen = false;
    26ac:	e5c530ae 	strb	r3, [r5, #174]	; 0xae
				keyBlue = false;
    26b0:	e5c530af 	strb	r3, [r5, #175]	; 0xaf
				keyYellow = false;
    26b4:	e5c530b0 	strb	r3, [r5, #176]	; 0xb0

				x = orangeCurrentX;
    26b8:	e59b0014 	ldr	r0, [r11, #20]
				y = orangeCurrentY;
    26bc:	e59b1010 	ldr	r1, [r11, #16]

				// for drawing the circles
				currX = x;
    26c0:	e58b0018 	str	r0, [r11, #24]
				currY = y;
    26c4:	e58b101c 	str	r1, [r11, #28]

				// animate the line:
				if (keyPressed == 'W') {
    26c8:	e5d53022 	ldrb	r3, [r5, #34]	; 0x22
    26cc:	e3530057 	cmp	r3, #87	; 0x57
    26d0:	1a00000a 	bne	2700 <main+0x824>
					direction  = 1;
					animate_line(x, y, direction, ORANGE_U16, ORANGE, board);
    26d4:	e3a03005 	mov	r3, #5
    26d8:	e58d3000 	str	r3, [sp]
    26dc:	e58d9004 	str	r9, [sp, #4]
    26e0:	e3a02001 	mov	r2, #1
    26e4:	e59d300c 	ldr	r3, [sp, #12]
    26e8:	ebfffd47 	bl	1c0c <animate_line>
					keyOrange = false;
    26ec:	e3a03000 	mov	r3, #0
    26f0:	e5c530b1 	strb	r3, [r5, #177]	; 0xb1
					currDirection = direction; // this is for the drawing of a square
    26f4:	e3a03001 	mov	r3, #1
    26f8:	e58b3020 	str	r3, [r11, #32]
    26fc:	ea000028 	b	27a4 <main+0x8c8>
				} else if (keyPressed == 'A') {
    2700:	e5d53022 	ldrb	r3, [r5, #34]	; 0x22
    2704:	e3530041 	cmp	r3, #65	; 0x41
    2708:	1a00000a 	bne	2738 <main+0x85c>
					direction  = 2;
					animate_line(x, y, direction, ORANGE_U16, ORANGE, board);
    270c:	e3a03005 	mov	r3, #5
    2710:	e58d3000 	str	r3, [sp]
    2714:	e58d9004 	str	r9, [sp, #4]
    2718:	e3a02002 	mov	r2, #2
    271c:	e59d300c 	ldr	r3, [sp, #12]
    2720:	ebfffd39 	bl	1c0c <animate_line>
					keyOrange = false;
    2724:	e3a03000 	mov	r3, #0
    2728:	e5c530b1 	strb	r3, [r5, #177]	; 0xb1
					currDirection = direction; // this is for the drawing of a square
    272c:	e3a03002 	mov	r3, #2
    2730:	e58b3020 	str	r3, [r11, #32]
    2734:	ea00001a 	b	27a4 <main+0x8c8>
				} else if (keyPressed == 'S') {
    2738:	e5d53022 	ldrb	r3, [r5, #34]	; 0x22
    273c:	e3530053 	cmp	r3, #83	; 0x53
    2740:	1a00000a 	bne	2770 <main+0x894>
					direction  = 3;
					animate_line(x, y, direction, ORANGE_U16, ORANGE, board);
    2744:	e3a03005 	mov	r3, #5
    2748:	e58d3000 	str	r3, [sp]
    274c:	e58d9004 	str	r9, [sp, #4]
    2750:	e3a02003 	mov	r2, #3
    2754:	e59d300c 	ldr	r3, [sp, #12]
    2758:	ebfffd2b 	bl	1c0c <animate_line>
					keyOrange = false;
    275c:	e3a03000 	mov	r3, #0
    2760:	e5c530b1 	strb	r3, [r5, #177]	; 0xb1
					currDirection = direction; // this is for the drawing of a square
    2764:	e3a03003 	mov	r3, #3
    2768:	e58b3020 	str	r3, [r11, #32]
    276c:	ea00000c 	b	27a4 <main+0x8c8>
				} else if (keyPressed == 'D') {
    2770:	e5d53022 	ldrb	r3, [r5, #34]	; 0x22
    2774:	e3530044 	cmp	r3, #68	; 0x44
    2778:	1a000009 	bne	27a4 <main+0x8c8>
					direction  = 4;
					animate_line(x, y, direction, ORANGE_U16, ORANGE, board);
    277c:	e3a03005 	mov	r3, #5
    2780:	e58d3000 	str	r3, [sp]
    2784:	e58d9004 	str	r9, [sp, #4]
    2788:	e3a02004 	mov	r2, #4
    278c:	e59d300c 	ldr	r3, [sp, #12]
    2790:	ebfffd1d 	bl	1c0c <animate_line>
					keyOrange = false;
    2794:	e3a03000 	mov	r3, #0
    2798:	e5c530b1 	strb	r3, [r5, #177]	; 0xb1
					currDirection = direction; // this is for the drawing of a square
    279c:	e3a03004 	mov	r3, #4
    27a0:	e58b3020 	str	r3, [r11, #32]
				}

			}

		   draw_piece(currX, currY, currDirection, WHITE_U16);
    27a4:	e59b0018 	ldr	r0, [r11, #24]
    27a8:	e59b101c 	ldr	r1, [r11, #28]
    27ac:	e59b2020 	ldr	r2, [r11, #32]
    27b0:	e3e03000 	mvn	r3, #0
    27b4:	ebfff71b 	bl	428 <draw_piece>
		   wait_for_vsync(); // swap front and back buffers on VGA vertical sync
    27b8:	ebfff768 	bl	560 <wait_for_vsync>
		   pixel_buffer_start = *(pixel_ctrl_ptr + 1); // new back buffer
    27bc:	e51a3fdb 	ldr	r3, [r10, #-4059]	; 0xfffff025
    27c0:	e585301c 	str	r3, [r5, #28]
    *(pixel_ctrl_ptr + 1) = 0xC0000000;
    pixel_buffer_start = *(pixel_ctrl_ptr + 1); // we draw on the back buffer
    //clear_screen();
    //coloring a square (testing code for now)
	while(1) {
		while (!checkGameOver()) {
    27c4:	ebfffcc8 	bl	1aec <checkGameOver>
    27c8:	e3500000 	cmp	r0, #0
    27cc:	1a000008 	bne	27f4 <main+0x918>
    27d0:	eafffded 	b	1f8c <main+0xb0>
		   wait_for_vsync(); // swap front and back buffers on VGA vertical sync
		   pixel_buffer_start = *(pixel_ctrl_ptr + 1); // new back buffer
		}
		
		while(!reset) {
			if(checkGameOver()) {
    27d4:	ebfffcc4 	bl	1aec <checkGameOver>
    27d8:	e3500000 	cmp	r0, #0
    27dc:	0a000004 	beq	27f4 <main+0x918>
				draw_game_over();
    27e0:	ebfffce2 	bl	1b70 <draw_game_over>
				wait_for_vsync(); // swap front and back buffers on VGA vertical sync
    27e4:	ebfff75d 	bl	560 <wait_for_vsync>
				pixel_buffer_start = *(pixel_ctrl_ptr + 1); // new back buffer
    27e8:	e51a3fdb 	ldr	r3, [r10, #-4059]	; 0xfffff025
    27ec:	e585301c 	str	r3, [r5, #28]
				clear_screen();
    27f0:	ebfff767 	bl	594 <clear_screen>
		   draw_piece(currX, currY, currDirection, WHITE_U16);
		   wait_for_vsync(); // swap front and back buffers on VGA vertical sync
		   pixel_buffer_start = *(pixel_ctrl_ptr + 1); // new back buffer
		}
		
		while(!reset) {
    27f4:	e5d53045 	ldrb	r3, [r5, #69]	; 0x45
    27f8:	e3530000 	cmp	r3, #0
    27fc:	0afffff4 	beq	27d4 <main+0x8f8>
				pixel_buffer_start = *(pixel_ctrl_ptr + 1); // new back buffer
				clear_screen();
				
			}
		}
		resetGame(reset, board);
    2800:	e5d50045 	ldrb	r0, [r5, #69]	; 0x45
    2804:	e1a01009 	mov	r1, r9
    2808:	ebfffbb9 	bl	16f4 <resetGame>
	}
    280c:	eaffffec 	b	27c4 <main+0x8e8>

00002810 <atexit>:
    2810:	e1a01000 	mov	r1, r0
    2814:	e3a00000 	mov	r0, #0
    2818:	e92d4008 	push	{r3, lr}
    281c:	e1a02000 	mov	r2, r0
    2820:	e1a03000 	mov	r3, r0
    2824:	eb00000e 	bl	2864 <__register_exitproc>
    2828:	e8bd4008 	pop	{r3, lr}
    282c:	e12fff1e 	bx	lr

00002830 <exit>:
    2830:	e92d4008 	push	{r3, lr}
    2834:	e3a01000 	mov	r1, #0
    2838:	e1a04000 	mov	r4, r0
    283c:	eb000045 	bl	2958 <__call_exitprocs>
    2840:	e59f3018 	ldr	r3, [pc, #24]	; 2860 <exit+0x30>
    2844:	e5930000 	ldr	r0, [r3]
    2848:	e590303c 	ldr	r3, [r0, #60]	; 0x3c
    284c:	e3530000 	cmp	r3, #0
    2850:	11a0e00f 	movne	lr, pc
    2854:	112fff13 	bxne	r3
    2858:	e1a00004 	mov	r0, r4
    285c:	eb0000c9 	bl	2b88 <_exit>
    2860:	0001ee34 	.word	0x0001ee34

00002864 <__register_exitproc>:
    2864:	e59fc0e4 	ldr	r12, [pc, #228]	; 2950 <__register_exitproc+0xec>
    2868:	e92d41f0 	push	{r4, r5, r6, r7, r8, lr}
    286c:	e59c4000 	ldr	r4, [r12]
    2870:	e594c148 	ldr	r12, [r4, #328]	; 0x148
    2874:	e35c0000 	cmp	r12, #0
    2878:	0284cf53 	addeq	r12, r4, #332	; 0x14c
    287c:	e59c5004 	ldr	r5, [r12, #4]
    2880:	0584c148 	streq	r12, [r4, #328]	; 0x148
    2884:	e355001f 	cmp	r5, #31
    2888:	e24dd010 	sub	sp, sp, #16
    288c:	e1a06000 	mov	r6, r0
    2890:	da000015 	ble	28ec <__register_exitproc+0x88>
    2894:	e59f00b8 	ldr	r0, [pc, #184]	; 2954 <__register_exitproc+0xf0>
    2898:	e3500000 	cmp	r0, #0
    289c:	1a000001 	bne	28a8 <__register_exitproc+0x44>
    28a0:	e3e00000 	mvn	r0, #0
    28a4:	ea000018 	b	290c <__register_exitproc+0xa8>
    28a8:	e3a00e19 	mov	r0, #400	; 0x190
    28ac:	e58d100c 	str	r1, [sp, #12]
    28b0:	e58d2008 	str	r2, [sp, #8]
    28b4:	e58d3004 	str	r3, [sp, #4]
    28b8:	e320f000 	nop	{0}
    28bc:	e250c000 	subs	r12, r0, #0
    28c0:	e59d100c 	ldr	r1, [sp, #12]
    28c4:	e59d2008 	ldr	r2, [sp, #8]
    28c8:	e59d3004 	ldr	r3, [sp, #4]
    28cc:	0afffff3 	beq	28a0 <__register_exitproc+0x3c>
    28d0:	e5945148 	ldr	r5, [r4, #328]	; 0x148
    28d4:	e3a00000 	mov	r0, #0
    28d8:	e58c0004 	str	r0, [r12, #4]
    28dc:	e58c5000 	str	r5, [r12]
    28e0:	e584c148 	str	r12, [r4, #328]	; 0x148
    28e4:	e58c0188 	str	r0, [r12, #392]	; 0x188
    28e8:	e58c018c 	str	r0, [r12, #396]	; 0x18c
    28ec:	e3560000 	cmp	r6, #0
    28f0:	e59c4004 	ldr	r4, [r12, #4]
    28f4:	1a000007 	bne	2918 <__register_exitproc+0xb4>
    28f8:	e2843002 	add	r3, r4, #2
    28fc:	e2844001 	add	r4, r4, #1
    2900:	e78c1103 	str	r1, [r12, r3, lsl #2]
    2904:	e58c4004 	str	r4, [r12, #4]
    2908:	e3a00000 	mov	r0, #0
    290c:	e28dd010 	add	sp, sp, #16
    2910:	e8bd41f0 	pop	{r4, r5, r6, r7, r8, lr}
    2914:	e12fff1e 	bx	lr
    2918:	e3a00001 	mov	r0, #1
    291c:	e1a00410 	lsl	r0, r0, r4
    2920:	e08c8104 	add	r8, r12, r4, lsl #2
    2924:	e3560002 	cmp	r6, #2
    2928:	e59c7188 	ldr	r7, [r12, #392]	; 0x188
    292c:	e5883108 	str	r3, [r8, #264]	; 0x108
    2930:	059c318c 	ldreq	r3, [r12, #396]	; 0x18c
    2934:	e1877000 	orr	r7, r7, r0
    2938:	01830000 	orreq	r0, r3, r0
    293c:	e1a05008 	mov	r5, r8
    2940:	e5882088 	str	r2, [r8, #136]	; 0x88
    2944:	e58c7188 	str	r7, [r12, #392]	; 0x188
    2948:	058c018c 	streq	r0, [r12, #396]	; 0x18c
    294c:	eaffffe9 	b	28f8 <__register_exitproc+0x94>
    2950:	0001ee34 	.word	0x0001ee34
    2954:	00000000 	.word	0x00000000

00002958 <__call_exitprocs>:
    2958:	e92d4ff0 	push	{r4, r5, r6, r7, r8, r9, r10, r11, lr}
    295c:	e59f3168 	ldr	r3, [pc, #360]	; 2acc <__call_exitprocs+0x174>
    2960:	e5933000 	ldr	r3, [r3]
    2964:	e24dd014 	sub	sp, sp, #20
    2968:	e58d3004 	str	r3, [sp, #4]
    296c:	e2833f52 	add	r3, r3, #328	; 0x148
    2970:	e58d0008 	str	r0, [sp, #8]
    2974:	e58d300c 	str	r3, [sp, #12]
    2978:	e1a07001 	mov	r7, r1
    297c:	e3a08001 	mov	r8, #1
    2980:	e59d3004 	ldr	r3, [sp, #4]
    2984:	e5936148 	ldr	r6, [r3, #328]	; 0x148
    2988:	e3560000 	cmp	r6, #0
    298c:	e59db00c 	ldr	r11, [sp, #12]
    2990:	0a000033 	beq	2a64 <__call_exitprocs+0x10c>
    2994:	e5965004 	ldr	r5, [r6, #4]
    2998:	e2554001 	subs	r4, r5, #1
    299c:	5286a088 	addpl	r10, r6, #136	; 0x88
    29a0:	5285501f 	addpl	r5, r5, #31
    29a4:	508a5105 	addpl	r5, r10, r5, lsl #2
    29a8:	5a000007 	bpl	29cc <__call_exitprocs+0x74>
    29ac:	ea000029 	b	2a58 <__call_exitprocs+0x100>
    29b0:	e5953000 	ldr	r3, [r5]
    29b4:	e1530007 	cmp	r3, r7
    29b8:	0a000005 	beq	29d4 <__call_exitprocs+0x7c>
    29bc:	e2444001 	sub	r4, r4, #1
    29c0:	e3740001 	cmn	r4, #1
    29c4:	e2455004 	sub	r5, r5, #4
    29c8:	0a000022 	beq	2a58 <__call_exitprocs+0x100>
    29cc:	e3570000 	cmp	r7, #0
    29d0:	1afffff6 	bne	29b0 <__call_exitprocs+0x58>
    29d4:	e5963004 	ldr	r3, [r6, #4]
    29d8:	e06a2005 	rsb	r2, r10, r5
    29dc:	e2433001 	sub	r3, r3, #1
    29e0:	e0862002 	add	r2, r6, r2
    29e4:	e1530004 	cmp	r3, r4
    29e8:	e5123078 	ldr	r3, [r2, #-120]	; 0xffffff88
    29ec:	13a01000 	movne	r1, #0
    29f0:	05864004 	streq	r4, [r6, #4]
    29f4:	15021078 	strne	r1, [r2, #-120]	; 0xffffff88
    29f8:	e3530000 	cmp	r3, #0
    29fc:	0affffee 	beq	29bc <__call_exitprocs+0x64>
    2a00:	e1a02418 	lsl	r2, r8, r4
    2a04:	e5961188 	ldr	r1, [r6, #392]	; 0x188
    2a08:	e1120001 	tst	r2, r1
    2a0c:	e5969004 	ldr	r9, [r6, #4]
    2a10:	0a000016 	beq	2a70 <__call_exitprocs+0x118>
    2a14:	e596118c 	ldr	r1, [r6, #396]	; 0x18c
    2a18:	e1120001 	tst	r2, r1
    2a1c:	1a000016 	bne	2a7c <__call_exitprocs+0x124>
    2a20:	e59d0008 	ldr	r0, [sp, #8]
    2a24:	e5151080 	ldr	r1, [r5, #-128]	; 0xffffff80
    2a28:	e1a0e00f 	mov	lr, pc
    2a2c:	e12fff13 	bx	r3
    2a30:	e5963004 	ldr	r3, [r6, #4]
    2a34:	e1530009 	cmp	r3, r9
    2a38:	1affffd0 	bne	2980 <__call_exitprocs+0x28>
    2a3c:	e59b3000 	ldr	r3, [r11]
    2a40:	e1530006 	cmp	r3, r6
    2a44:	1affffcd 	bne	2980 <__call_exitprocs+0x28>
    2a48:	e2444001 	sub	r4, r4, #1
    2a4c:	e3740001 	cmn	r4, #1
    2a50:	e2455004 	sub	r5, r5, #4
    2a54:	1affffdc 	bne	29cc <__call_exitprocs+0x74>
    2a58:	e59f1070 	ldr	r1, [pc, #112]	; 2ad0 <__call_exitprocs+0x178>
    2a5c:	e3510000 	cmp	r1, #0
    2a60:	1a000009 	bne	2a8c <__call_exitprocs+0x134>
    2a64:	e28dd014 	add	sp, sp, #20
    2a68:	e8bd4ff0 	pop	{r4, r5, r6, r7, r8, r9, r10, r11, lr}
    2a6c:	e12fff1e 	bx	lr
    2a70:	e1a0e00f 	mov	lr, pc
    2a74:	e12fff13 	bx	r3
    2a78:	eaffffec 	b	2a30 <__call_exitprocs+0xd8>
    2a7c:	e5150080 	ldr	r0, [r5, #-128]	; 0xffffff80
    2a80:	e1a0e00f 	mov	lr, pc
    2a84:	e12fff13 	bx	r3
    2a88:	eaffffe8 	b	2a30 <__call_exitprocs+0xd8>
    2a8c:	e5963004 	ldr	r3, [r6, #4]
    2a90:	e3530000 	cmp	r3, #0
    2a94:	e5963000 	ldr	r3, [r6]
    2a98:	1a000008 	bne	2ac0 <__call_exitprocs+0x168>
    2a9c:	e3530000 	cmp	r3, #0
    2aa0:	0a000006 	beq	2ac0 <__call_exitprocs+0x168>
    2aa4:	e1a00006 	mov	r0, r6
    2aa8:	e58b3000 	str	r3, [r11]
    2aac:	e320f000 	nop	{0}
    2ab0:	e59b6000 	ldr	r6, [r11]
    2ab4:	e3560000 	cmp	r6, #0
    2ab8:	1affffb5 	bne	2994 <__call_exitprocs+0x3c>
    2abc:	eaffffe8 	b	2a64 <__call_exitprocs+0x10c>
    2ac0:	e1a0b006 	mov	r11, r6
    2ac4:	e1a06003 	mov	r6, r3
    2ac8:	eafffff9 	b	2ab4 <__call_exitprocs+0x15c>
    2acc:	0001ee34 	.word	0x0001ee34
    2ad0:	00000000 	.word	0x00000000

00002ad4 <register_fini>:
    2ad4:	e92d4008 	push	{r3, lr}
    2ad8:	e59f3010 	ldr	r3, [pc, #16]	; 2af0 <register_fini+0x1c>
    2adc:	e3530000 	cmp	r3, #0
    2ae0:	159f000c 	ldrne	r0, [pc, #12]	; 2af4 <register_fini+0x20>
    2ae4:	1bffff49 	blne	2810 <atexit>
    2ae8:	e8bd4008 	pop	{r3, lr}
    2aec:	e12fff1e 	bx	lr
    2af0:	0001ee5c 	.word	0x0001ee5c
    2af4:	00002af8 	.word	0x00002af8

00002af8 <__libc_fini_array>:
    2af8:	e92d4038 	push	{r3, r4, r5, lr}
    2afc:	e59f5030 	ldr	r5, [pc, #48]	; 2b34 <__libc_fini_array+0x3c>
    2b00:	e59f4030 	ldr	r4, [pc, #48]	; 2b38 <__libc_fini_array+0x40>
    2b04:	e0654004 	rsb	r4, r5, r4
    2b08:	e1b04144 	asrs	r4, r4, #2
    2b0c:	10855104 	addne	r5, r5, r4, lsl #2
    2b10:	0a000004 	beq	2b28 <__libc_fini_array+0x30>
    2b14:	e5353004 	ldr	r3, [r5, #-4]!
    2b18:	e1a0e00f 	mov	lr, pc
    2b1c:	e12fff13 	bx	r3
    2b20:	e2544001 	subs	r4, r4, #1
    2b24:	1afffffa 	bne	2b14 <__libc_fini_array+0x1c>
    2b28:	eb0070cb 	bl	1ee5c <__libc_fini>
    2b2c:	e8bd4038 	pop	{r3, r4, r5, lr}
    2b30:	e12fff1e 	bx	lr
    2b34:	0001ee74 	.word	0x0001ee74
    2b38:	0001ee78 	.word	0x0001ee78

00002b3c <__cs3_premain>:
    2b3c:	e92d4008 	push	{r3, lr}
    2b40:	eb000017 	bl	2ba4 <__libc_init_array>
    2b44:	e59f3030 	ldr	r3, [pc, #48]	; 2b7c <__cs3_premain+0x40>
    2b48:	e3530000 	cmp	r3, #0
    2b4c:	15930000 	ldrne	r0, [r3]
    2b50:	01a00003 	moveq	r0, r3
    2b54:	e59f3024 	ldr	r3, [pc, #36]	; 2b80 <__cs3_premain+0x44>
    2b58:	e3530000 	cmp	r3, #0
    2b5c:	15931000 	ldrne	r1, [r3]
    2b60:	01a01003 	moveq	r1, r3
    2b64:	e3a02000 	mov	r2, #0
    2b68:	ebfffcdb 	bl	1edc <main>
    2b6c:	e59f3010 	ldr	r3, [pc, #16]	; 2b84 <__cs3_premain+0x48>
    2b70:	e3530000 	cmp	r3, #0
    2b74:	1bffff2d 	blne	2830 <exit>
    2b78:	eafffffe 	b	2b78 <__cs3_premain+0x3c>
	...
    2b84:	00002830 	.word	0x00002830

00002b88 <_exit>:
    2b88:	e52de004 	push	{lr}		; (str lr, [sp, #-4]!)
    2b8c:	e3a00018 	mov	r0, #24
    2b90:	e59f1004 	ldr	r1, [pc, #4]	; 2b9c <_exit+0x14>
    2b94:	ef123456 	svc	0x00123456
    2b98:	eafffffe 	b	2b98 <_exit+0x10>
    2b9c:	00020026 	.word	0x00020026

00002ba0 <__cs3_isr_interrupt>:
    2ba0:	eafffffe 	b	2ba0 <__cs3_isr_interrupt>

00002ba4 <__libc_init_array>:
    2ba4:	e92d4070 	push	{r4, r5, r6, lr}
    2ba8:	e59f506c 	ldr	r5, [pc, #108]	; 2c1c <__libc_init_array+0x78>
    2bac:	e59f606c 	ldr	r6, [pc, #108]	; 2c20 <__libc_init_array+0x7c>
    2bb0:	e0656006 	rsb	r6, r5, r6
    2bb4:	e1b06146 	asrs	r6, r6, #2
    2bb8:	12455004 	subne	r5, r5, #4
    2bbc:	13a04000 	movne	r4, #0
    2bc0:	0a000005 	beq	2bdc <__libc_init_array+0x38>
    2bc4:	e5b53004 	ldr	r3, [r5, #4]!
    2bc8:	e2844001 	add	r4, r4, #1
    2bcc:	e1a0e00f 	mov	lr, pc
    2bd0:	e12fff13 	bx	r3
    2bd4:	e1560004 	cmp	r6, r4
    2bd8:	1afffff9 	bne	2bc4 <__libc_init_array+0x20>
    2bdc:	e59f5040 	ldr	r5, [pc, #64]	; 2c24 <__libc_init_array+0x80>
    2be0:	e59f6040 	ldr	r6, [pc, #64]	; 2c28 <__libc_init_array+0x84>
    2be4:	e0656006 	rsb	r6, r5, r6
    2be8:	eb007093 	bl	1ee3c <_init>
    2bec:	e1b06146 	asrs	r6, r6, #2
    2bf0:	12455004 	subne	r5, r5, #4
    2bf4:	13a04000 	movne	r4, #0
    2bf8:	0a000005 	beq	2c14 <__libc_init_array+0x70>
    2bfc:	e5b53004 	ldr	r3, [r5, #4]!
    2c00:	e2844001 	add	r4, r4, #1
    2c04:	e1a0e00f 	mov	lr, pc
    2c08:	e12fff13 	bx	r3
    2c0c:	e1560004 	cmp	r6, r4
    2c10:	1afffff9 	bne	2bfc <__libc_init_array+0x58>
    2c14:	e8bd4070 	pop	{r4, r5, r6, lr}
    2c18:	e12fff1e 	bx	lr
    2c1c:	0001ee54 	.word	0x0001ee54
    2c20:	0001ee54 	.word	0x0001ee54
    2c24:	0001ee54 	.word	0x0001ee54
    2c28:	0001ee5c 	.word	0x0001ee5c
